
kernel.coff-h8300:     file format coff-h8300

Disassembly of section .rom:
Disassembly of section .text:

00008000 <___text>:
    8000:	40 02       	40 02             bra	.+2 (8004)
    8002:	20 91       	20 91             mov.b	@0x91:8,r0h

00008004 <_main>:
    8004:	5e 00 86 6c 	5e 00 86 6c       jsr	@0x866c:0
    8008:	5e 00 87 cc 	5e 00 87 cc       jsr	@0x87cc:0
    800c:	6b 00 8c ec 	6b 00 8c ec       mov.w	@0x8cec:16,r0
    8010:	09 00       	09 00             add.w	r0,r0
    8012:	79 02 8d 1e 	79 02 8d 1e       mov.w	#0x8d1e,r2
    8016:	09 02       	09 02             add.w	r0,r2
    8018:	0d 20       	0d 20             mov.w	r2,r0
    801a:	5e 00 87 18 	5e 00 87 18       jsr	@0x8718:0
    801e:	5e 00 86 98 	5e 00 86 98       jsr	@0x8698:0
    8022:	5e 00 86 b4 	5e 00 86 b4       jsr	@0x86b4:0
    8026:	79 00 87 3a 	79 00 87 3a       mov.w	#0x873a,r0
    802a:	5e 00 87 e6 	5e 00 87 e6       jsr	@0x87e6:0
    802e:	5e 00 88 f2 	5e 00 88 f2       jsr	@0x88f2:0
    8032:	5e 00 87 28 	5e 00 87 28       jsr	@0x8728:0
    8036:	6b 00 8e e0 	6b 00 8e e0       mov.w	@0x8ee0:16,r0
    803a:	5e 00 83 7a 	5e 00 83 7a       jsr	@0x837a:0

0000803e <.L8>:
    803e:	19 00       	19 00             sub.w	r0,r0
    8040:	5e 00 89 04 	5e 00 89 04       jsr	@0x8904:0
    8044:	40 f8       	40 f8             bra	.-8 (803e)

00008046 <_getNextTask>:
    8046:	1b 87       	1b 87             subs	#0x2,er7
    8048:	6d f4       	6d f4             mov.w	r4,@-e7
    804a:	6d f5       	6d f5             mov.w	r5,@-e7
    804c:	19 00       	19 00             sub.w	r0,r0
    804e:	6f f0 00 04 	6f f0 00 04       mov.w	r0,@(0x4:16,e7)
    8052:	19 55       	19 55             sub.w	r5,r5
    8054:	6b 80 8c 02 	6b 80 8c 02       mov.w	r0,@0x8c02:16
    8058:	79 00 00 01 	79 00 00 01       mov.w	#0x1,r0
    805c:	6b 02 8d 1c 	6b 02 8d 1c       mov.w	@0x8d1c:16,r2
    8060:	1d 20       	1d 20             cmp.w	r2,r0
    8062:	44 44       	44 44             bcc	.+68 (80a8)
    8064:	6b 02 8d 1e 	6b 02 8d 1e       mov.w	@0x8d1e:16,r2
    8068:	0d 21       	0d 21             mov.w	r2,r1
    806a:	89 34       	89 34             add.b	#0x34,r1l
    806c:	91 00       	91 00             addx	#0x0,r1h
    806e:	79 04 00 1c 	79 04 00 1c       mov.w	#0x1c,r4
    8072:	09 24       	09 24             add.w	r2,r4

00008074 <.L14>:
    8074:	69 43       	69 43             mov.w	@r4,r3
    8076:	79 02 00 01 	79 02 00 01       mov.w	#0x1,r2
    807a:	1d 23       	1d 23             cmp.w	r2,r3
    807c:	46 0e       	46 0e             bne	.+14 (808c)
    807e:	69 12       	69 12             mov.w	@r1,r2
    8080:	1d 52       	1d 52             cmp.w	r5,r2
    8082:	43 08       	43 08             bls	.+8 (808c)
    8084:	0d 25       	0d 25             mov.w	r2,r5
    8086:	6b 80 8c 02 	6b 80 8c 02       mov.w	r0,@0x8c02:16
    808a:	40 0a       	40 0a             bra	.+10 (8096)

0000808c <.L15>:
    808c:	69 12       	69 12             mov.w	@r1,r2
    808e:	6f f2 00 04 	6f f2 00 04       mov.w	r2,@(0x4:16,e7)
    8092:	6f f0 00 04 	6f f0 00 04       mov.w	r0,@(0x4:16,e7)

00008096 <.L13>:
    8096:	89 1c       	89 1c             add.b	#0x1c,r1l
    8098:	91 00       	91 00             addx	#0x0,r1h
    809a:	8c 1c       	8c 1c             add.b	#0x1c,r4l
    809c:	94 00       	94 00             addx	#0x0,r4h
    809e:	0b 00       	0b 00             adds	#0x1,er0
    80a0:	6b 02 8d 1c 	6b 02 8d 1c       mov.w	@0x8d1c:16,r2
    80a4:	1d 20       	1d 20             cmp.w	r2,r0
    80a6:	45 cc       	45 cc             bcs	.-52 (8074)

000080a8 <.L12>:
    80a8:	6b 03 8c 02 	6b 03 8c 02       mov.w	@0x8c02:16,r3
    80ac:	6b 00 8d 1e 	6b 00 8d 1e       mov.w	@0x8d1e:16,r0
    80b0:	0d 32       	0d 32             mov.w	r3,r2
    80b2:	09 22       	09 22             add.w	r2,r2
    80b4:	09 22       	09 22             add.w	r2,r2
    80b6:	09 22       	09 22             add.w	r2,r2
    80b8:	19 32       	19 32             sub.w	r3,r2
    80ba:	09 22       	09 22             add.w	r2,r2
    80bc:	09 22       	09 22             add.w	r2,r2
    80be:	09 02       	09 02             add.w	r0,r2
    80c0:	6b 04 8c 04 	6b 04 8c 04       mov.w	@0x8c04:16,r4
    80c4:	0d 41       	0d 41             mov.w	r4,r1
    80c6:	09 11       	09 11             add.w	r1,r1
    80c8:	09 11       	09 11             add.w	r1,r1
    80ca:	09 11       	09 11             add.w	r1,r1
    80cc:	19 41       	19 41             sub.w	r4,r1
    80ce:	09 11       	09 11             add.w	r1,r1
    80d0:	09 11       	09 11             add.w	r1,r1
    80d2:	09 01       	09 01             add.w	r0,r1
    80d4:	6f 23 00 18 	6f 23 00 18       mov.w	@(0x18:16,r2),r3
    80d8:	6f 12 00 18 	6f 12 00 18       mov.w	@(0x18:16,r1),r2
    80dc:	1d 23       	1d 23             cmp.w	r2,r3
    80de:	44 0e       	44 0e             bcc	.+14 (80ee)
    80e0:	69 13       	69 13             mov.w	@r1,r3
    80e2:	79 02 00 02 	79 02 00 02       mov.w	#0x2,r2
    80e6:	1d 23       	1d 23             cmp.w	r2,r3
    80e8:	46 04       	46 04             bne	.+4 (80ee)
    80ea:	6b 84 8c 02 	6b 84 8c 02       mov.w	r4,@0x8c02:16

000080ee <.L19>:
    80ee:	6d 75       	6d 75             mov.w	@r7+,r5
    80f0:	6d 74       	6d 74             mov.w	@r7+,r4
    80f2:	0b 87       	0b 87             adds	#0x2,er7
    80f4:	54 70       	54 70             rts	

000080f6 <_moveToReady>:
    80f6:	6b 03 8d 1e 	6b 03 8d 1e       mov.w	@0x8d1e:16,r3
    80fa:	0d 02       	0d 02             mov.w	r0,r2
    80fc:	09 22       	09 22             add.w	r2,r2
    80fe:	09 22       	09 22             add.w	r2,r2
    8100:	09 22       	09 22             add.w	r2,r2
    8102:	19 02       	19 02             sub.w	r0,r2
    8104:	09 22       	09 22             add.w	r2,r2
    8106:	09 22       	09 22             add.w	r2,r2
    8108:	09 32       	09 32             add.w	r3,r2
    810a:	79 03 00 01 	79 03 00 01       mov.w	#0x1,r3
    810e:	69 a3       	69 a3             mov.w	r3,@e2

00008110 <.ef>:
    8110:	54 70       	54 70             rts	

00008112 <_moveToExec>:
    8112:	6b 03 8d 1e 	6b 03 8d 1e       mov.w	@0x8d1e:16,r3
    8116:	0d 02       	0d 02             mov.w	r0,r2
    8118:	09 22       	09 22             add.w	r2,r2
    811a:	09 22       	09 22             add.w	r2,r2
    811c:	09 22       	09 22             add.w	r2,r2
    811e:	19 02       	19 02             sub.w	r0,r2
    8120:	09 22       	09 22             add.w	r2,r2
    8122:	09 22       	09 22             add.w	r2,r2
    8124:	09 32       	09 32             add.w	r3,r2
    8126:	79 03 00 02 	79 03 00 02       mov.w	#0x2,r3
    812a:	69 a3       	69 a3             mov.w	r3,@e2
    812c:	6b 80 8c 04 	6b 80 8c 04       mov.w	r0,@0x8c04:16

00008130 <.ef>:
    8130:	54 70       	54 70             rts	

00008132 <_moveToWaiting>:
    8132:	6b 02 8d 18 	6b 02 8d 18       mov.w	@0x8d18:16,r2
    8136:	0d 01       	0d 01             mov.w	r0,r1
    8138:	09 11       	09 11             add.w	r1,r1
    813a:	09 11       	09 11             add.w	r1,r1
    813c:	09 11       	09 11             add.w	r1,r1
    813e:	0d 13       	0d 13             mov.w	r1,r3
    8140:	09 03       	09 03             add.w	r0,r3
    8142:	09 33       	09 33             add.w	r3,r3
    8144:	09 23       	09 23             add.w	r2,r3
    8146:	69 32       	69 32             mov.w	@r3,r2
    8148:	46 14       	46 14             bne	.+20 (815e)
    814a:	6b 02 8d 1e 	6b 02 8d 1e       mov.w	@0x8d1e:16,r2
    814e:	0d 13       	0d 13             mov.w	r1,r3
    8150:	19 03       	19 03             sub.w	r0,r3
    8152:	09 33       	09 33             add.w	r3,r3
    8154:	09 33       	09 33             add.w	r3,r3
    8156:	09 23       	09 23             add.w	r2,r3
    8158:	79 02 00 03 	79 02 00 03       mov.w	#0x3,r2
    815c:	40 10       	40 10             bra	.+16 (816e)

0000815e <.L23>:
    815e:	6b 02 8d 1e 	6b 02 8d 1e       mov.w	@0x8d1e:16,r2
    8162:	0d 13       	0d 13             mov.w	r1,r3
    8164:	19 03       	19 03             sub.w	r0,r3
    8166:	09 33       	09 33             add.w	r3,r3
    8168:	09 33       	09 33             add.w	r3,r3
    816a:	09 23       	09 23             add.w	r2,r3
    816c:	19 22       	19 22             sub.w	r2,r2

0000816e <.L25>:
    816e:	69 b2       	69 b2             mov.w	r2,@e3

00008170 <.ef>:
    8170:	54 70       	54 70             rts	

00008172 <_updateTCBList>:
    8172:	1b 87       	1b 87             subs	#0x2,er7
    8174:	1b 87       	1b 87             subs	#0x2,er7
    8176:	6d f4       	6d f4             mov.w	r4,@-e7
    8178:	6d f5       	6d f5             mov.w	r5,@-e7
    817a:	6d f6       	6d f6             mov.w	r6,@-e7
    817c:	79 06 00 01 	79 06 00 01       mov.w	#0x1,r6
    8180:	6b 02 8d 16 	6b 02 8d 16       mov.w	@0x8d16:16,r2
    8184:	1d 26       	1d 26             cmp.w	r2,r6
    8186:	45 04       	45 04             bcs	.+4 (818c)
    8188:	5a 00 82 50 	5a 00 82 50       jmp	@0x8250:0

0000818c <.Lh8BR229>:
    818c:	79 05 00 1c 	79 05 00 1c       mov.w	#0x1c,r5
    8190:	79 04 00 12 	79 04 00 12       mov.w	#0x12,r4
    8194:	6f f4 00 08 	6f f4 00 08       mov.w	r4,@(0x8:16,e7)

00008198 <.L30>:
    8198:	6b 00 8d 1e 	6b 00 8d 1e       mov.w	@0x8d1e:16,r0
    819c:	6f f0 00 06 	6f f0 00 06       mov.w	r0,@(0x6:16,e7)
    81a0:	0d 51       	0d 51             mov.w	r5,r1
    81a2:	09 01       	09 01             add.w	r0,r1
    81a4:	69 13       	69 13             mov.w	@r1,r3
    81a6:	79 02 00 02 	79 02 00 02       mov.w	#0x2,r2
    81aa:	1d 23       	1d 23             cmp.w	r2,r3
    81ac:	42 0a       	42 0a             bhi	.+10 (81b8)
    81ae:	79 02 00 01 	79 02 00 01       mov.w	#0x1,r2
    81b2:	1d 23       	1d 23             cmp.w	r2,r3
    81b4:	44 0c       	44 0c             bcc	.+12 (81c2)
    81b6:	40 1c       	40 1c             bra	.+28 (81d4)

000081b8 <.L42>:
    81b8:	79 02 00 03 	79 02 00 03       mov.w	#0x3,r2
    81bc:	1d 23       	1d 23             cmp.w	r2,r3
    81be:	47 30       	47 30             beq	.+48 (81f0)
    81c0:	40 62       	40 62             bra	.+98 (8224)

000081c2 <.L33>:
    81c2:	6f 12 00 02 	6f 12 00 02       mov.w	@(0x2:16,r1),r2
    81c6:	46 4a       	46 4a             bne	.+74 (8212)
    81c8:	6b 02 8d 18 	6b 02 8d 18       mov.w	@0x8d18:16,r2
    81cc:	6f 73 00 08 	6f 73 00 08       mov.w	@(0x8:16,r7),r3
    81d0:	09 23       	09 23             add.w	r2,r3
    81d2:	40 30       	40 30             bra	.+48 (8204)

000081d4 <.L35>:
    81d4:	0d 52       	0d 52             mov.w	r5,r2
    81d6:	6f 74 00 06 	6f 74 00 06       mov.w	@(0x6:16,r7),r4
    81da:	09 42       	09 42             add.w	r4,r2
    81dc:	6f 22 00 16 	6f 22 00 16       mov.w	@(0x16:16,r2),r2
    81e0:	46 42       	46 42             bne	.+66 (8224)
    81e2:	0d 60       	0d 60             mov.w	r6,r0
    81e4:	5e 00 82 f0 	5e 00 82 f0       jsr	@0x82f0:0
    81e8:	0d 60       	0d 60             mov.w	r6,r0
    81ea:	5e 00 80 f6 	5e 00 80 f6       jsr	@0x80f6:0
    81ee:	40 30       	40 30             bra	.+48 (8220)

000081f0 <.L37>:
    81f0:	6b 02 8d 18 	6b 02 8d 18       mov.w	@0x8d18:16,r2
    81f4:	6f 73 00 08 	6f 73 00 08       mov.w	@(0x8:16,r7),r3
    81f8:	09 23       	09 23             add.w	r2,r3
    81fa:	69 32       	69 32             mov.w	@r3,r2
    81fc:	47 26       	47 26             beq	.+38 (8224)
    81fe:	6f 12 00 02 	6f 12 00 02       mov.w	@(0x2:16,r1),r2
    8202:	46 0e       	46 0e             bne	.+14 (8212)

00008204 <.L45>:
    8204:	6f 32 00 0a 	6f 32 00 0a       mov.w	@(0xa:16,r3),r2
    8208:	79 00 03 e9 	79 00 03 e9       mov.w	#0x3e9,r0
    820c:	5d 20       	5d 20             jsr	@r2
    820e:	6b 00 8d 1e 	6b 00 8d 1e       mov.w	@0x8d1e:16,r0

00008212 <.L39>:
    8212:	0d 53       	0d 53             mov.w	r5,r3
    8214:	09 03       	09 03             add.w	r0,r3
    8216:	6f 32 00 02 	6f 32 00 02       mov.w	@(0x2:16,r3),r2
    821a:	1b 02       	1b 02             subs	#0x1,er2
    821c:	6f b2 00 02 	6f b2 00 02       mov.w	r2,@(0x2:16,e3)

00008220 <.L44>:
    8220:	6b 00 8d 1e 	6b 00 8d 1e       mov.w	@0x8d1e:16,r0

00008224 <.L31>:
    8224:	0d 52       	0d 52             mov.w	r5,r2
    8226:	09 02       	09 02             add.w	r0,r2
    8228:	6f 23 00 16 	6f 23 00 16       mov.w	@(0x16:16,r2),r3
    822c:	1b 03       	1b 03             subs	#0x1,er3
    822e:	6f a3 00 16 	6f a3 00 16       mov.w	r3,@(0x16:16,e2)
    8232:	8d 1c       	8d 1c             add.b	#0x1c,r5l
    8234:	95 00       	95 00             addx	#0x0,r5h
    8236:	6f 74 00 08 	6f 74 00 08       mov.w	@(0x8:16,r7),r4
    823a:	8c 12       	8c 12             add.b	#0x12,r4l
    823c:	94 00       	94 00             addx	#0x0,r4h
    823e:	6f f4 00 08 	6f f4 00 08       mov.w	r4,@(0x8:16,e7)
    8242:	0b 06       	0b 06             adds	#0x1,er6
    8244:	6b 02 8d 16 	6b 02 8d 16       mov.w	@0x8d16:16,r2
    8248:	1d 26       	1d 26             cmp.w	r2,r6
    824a:	44 04       	44 04             bcc	.+4 (8250)
    824c:	5a 00 81 98 	5a 00 81 98       jmp	@0x8198:0

00008250 <.L28>:
    8250:	6b 02 8c 06 	6b 02 8c 06       mov.w	@0x8c06:16,r2
    8254:	0b 02       	0b 02             adds	#0x1,er2
    8256:	6b 82 8c 06 	6b 82 8c 06       mov.w	r2,@0x8c06:16

0000825a <.ef>:
    825a:	6d 76       	6d 76             mov.w	@r7+,r6
    825c:	6d 75       	6d 75             mov.w	@r7+,r5
    825e:	6d 74       	6d 74             mov.w	@r7+,r4
    8260:	0b 87       	0b 87             adds	#0x2,er7
    8262:	0b 87       	0b 87             adds	#0x2,er7
    8264:	54 70       	54 70             rts	

00008266 <_dispatch>:
    8266:	19 33       	19 33             sub.w	r3,r3
    8268:	6b 01 8c 02 	6b 01 8c 02       mov.w	@0x8c02:16,r1
    826c:	6b 00 8c 04 	6b 00 8c 04       mov.w	@0x8c04:16,r0
    8270:	1d 01       	1d 01             cmp.w	r0,r1
    8272:	47 78       	47 78             beq	.+120 (82ec)

00008274 <.Lh8BR387>:
    8274:	6b 03 8d 1e 	6b 03 8d 1e       mov.w	@0x8d1e:16,r3
    8278:	0d 02       	0d 02             mov.w	r0,r2
    827a:	09 22       	09 22             add.w	r2,r2
    827c:	09 22       	09 22             add.w	r2,r2
    827e:	09 22       	09 22             add.w	r2,r2
    8280:	19 02       	19 02             sub.w	r0,r2
    8282:	09 22       	09 22             add.w	r2,r2
    8284:	09 22       	09 22             add.w	r2,r2
    8286:	09 32       	09 32             add.w	r3,r2
    8288:	69 23       	69 23             mov.w	@r2,r3
    828a:	47 10       	47 10             beq	.+16 (829c)
    828c:	79 02 00 03 	79 02 00 03       mov.w	#0x3,r2
    8290:	1d 23       	1d 23             cmp.w	r2,r3
    8292:	47 08       	47 08             beq	.+8 (829c)
    8294:	5e 00 80 f6 	5e 00 80 f6       jsr	@0x80f6:0
    8298:	6b 01 8c 02 	6b 01 8c 02       mov.w	@0x8c02:16,r1

0000829c <.L51>:
    829c:	0d 10       	0d 10             mov.w	r1,r0
    829e:	09 00       	09 00             add.w	r0,r0
    82a0:	09 00       	09 00             add.w	r0,r0
    82a2:	09 00       	09 00             add.w	r0,r0
    82a4:	0d 03       	0d 03             mov.w	r0,r3
    82a6:	09 13       	09 13             add.w	r1,r3
    82a8:	09 33       	09 33             add.w	r3,r3
    82aa:	6b 02 8d 18 	6b 02 8d 18       mov.w	@0x8d18:16,r2
    82ae:	09 32       	09 32             add.w	r3,r2
    82b0:	6b 82 8d 00 	6b 82 8d 00       mov.w	r2,@0x8d00:16
    82b4:	19 10       	19 10             sub.w	r1,r0
    82b6:	09 00       	09 00             add.w	r0,r0
    82b8:	09 00       	09 00             add.w	r0,r0
    82ba:	6b 02 8d 1e 	6b 02 8d 1e       mov.w	@0x8d1e:16,r2
    82be:	09 02       	09 02             add.w	r0,r2
    82c0:	6b 82 8d 02 	6b 82 8d 02       mov.w	r2,@0x8d02:16
    82c4:	0d 10       	0d 10             mov.w	r1,r0
    82c6:	5e 00 81 12 	5e 00 81 12       jsr	@0x8112:0
    82ca:	6b 02 8d 02 	6b 02 8d 02       mov.w	@0x8d02:16,r2
    82ce:	6b 03 8d 00 	6b 03 8d 00       mov.w	@0x8d00:16,r3
    82d2:	6f 20 00 04 	6f 20 00 04       mov.w	@(0x4:16,r2),r0
    82d6:	6f 32 00 06 	6f 32 00 06       mov.w	@(0x6:16,r3),r2
    82da:	79 03 00 01 	79 03 00 01       mov.w	#0x1,r3
    82de:	1d 20       	1d 20             cmp.w	r2,r0
    82e0:	46 0a       	46 0a             bne	.+10 (82ec)
    82e2:	6b 02 8c 02 	6b 02 8c 02       mov.w	@0x8c02:16,r2
    82e6:	47 04       	47 04             beq	.+4 (82ec)
    82e8:	79 03 00 03 	79 03 00 03       mov.w	#0x3,r3

000082ec <.L48>:
    82ec:	0d 30       	0d 30             mov.w	r3,r0

000082ee <.ef>:
    82ee:	54 70       	54 70             rts	

000082f0 <_initTask>:
    82f0:	6d f4       	6d f4             mov.w	r4,@-e7
    82f2:	0d 02       	0d 02             mov.w	r0,r2
    82f4:	09 22       	09 22             add.w	r2,r2
    82f6:	09 22       	09 22             add.w	r2,r2
    82f8:	09 22       	09 22             add.w	r2,r2
    82fa:	0d 23       	0d 23             mov.w	r2,r3
    82fc:	09 03       	09 03             add.w	r0,r3
    82fe:	09 33       	09 33             add.w	r3,r3
    8300:	6b 01 8d 18 	6b 01 8d 18       mov.w	@0x8d18:16,r1
    8304:	09 31       	09 31             add.w	r3,r1
    8306:	19 02       	19 02             sub.w	r0,r2
    8308:	09 22       	09 22             add.w	r2,r2
    830a:	09 22       	09 22             add.w	r2,r2
    830c:	6b 03 8d 1e 	6b 03 8d 1e       mov.w	@0x8d1e:16,r3
    8310:	09 23       	09 23             add.w	r2,r3
    8312:	0d 00       	0d 00             mov.w	r0,r0
    8314:	47 5a       	47 5a             beq	.+90 (8370)
    8316:	69 12       	69 12             mov.w	@r1,r2
    8318:	46 06       	46 06             bne	.+6 (8320)
    831a:	79 02 00 03 	79 02 00 03       mov.w	#0x3,r2
    831e:	40 02       	40 02             bra	.+2 (8322)

00008320 <.L56>:
    8320:	19 22       	19 22             sub.w	r2,r2

00008322 <.L58>:
    8322:	69 b2       	69 b2             mov.w	r2,@e3
    8324:	6f 12 00 06 	6f 12 00 06       mov.w	@(0x6:16,r1),r2
    8328:	6f b2 00 04 	6f b2 00 04       mov.w	r2,@(0x4:16,e3)
    832c:	6f 12 00 08 	6f 12 00 08       mov.w	@(0x8:16,r1),r2
    8330:	6f b2 00 08 	6f b2 00 08       mov.w	r2,@(0x8:16,e3)
    8334:	19 22       	19 22             sub.w	r2,r2
    8336:	6f b2 00 0a 	6f b2 00 0a       mov.w	r2,@(0xa:16,e3)
    833a:	6f b2 00 0c 	6f b2 00 0c       mov.w	r2,@(0xc:16,e3)
    833e:	6f b2 00 0e 	6f b2 00 0e       mov.w	r2,@(0xe:16,e3)
    8342:	6f b2 00 10 	6f b2 00 10       mov.w	r2,@(0x10:16,e3)
    8346:	6f b2 00 12 	6f b2 00 12       mov.w	r2,@(0x12:16,e3)
    834a:	6f b2 00 14 	6f b2 00 14       mov.w	r2,@(0x14:16,e3)
    834e:	6f 12 00 0c 	6f 12 00 0c       mov.w	@(0xc:16,r1),r2
    8352:	6f b2 00 06 	6f b2 00 06       mov.w	r2,@(0x6:16,e3)
    8356:	6f 12 00 02 	6f 12 00 02       mov.w	@(0x2:16,r1),r2
    835a:	6f 14 00 04 	6f 14 00 04       mov.w	@(0x4:16,r1),r4
    835e:	19 24       	19 24             sub.w	r2,r4
    8360:	0d 42       	0d 42             mov.w	r4,r2
    8362:	1b 02       	1b 02             subs	#0x1,er2
    8364:	6f b2 00 02 	6f b2 00 02       mov.w	r2,@(0x2:16,e3)
    8368:	69 12       	69 12             mov.w	@r1,r2
    836a:	1b 02       	1b 02             subs	#0x1,er2
    836c:	6f b2 00 16 	6f b2 00 16       mov.w	r2,@(0x16:16,e3)

00008370 <.L54>:
    8370:	6d 74       	6d 74             mov.w	@r7+,r4
    8372:	54 70       	54 70             rts	

00008374 <_getTicks>:
    8374:	6b 00 8c 06 	6b 00 8c 06       mov.w	@0x8c06:16,r0

00008378 <.ef>:
    8378:	54 70       	54 70             rts	

0000837a <_os_changeMode>:
    837a:	6d f4       	6d f4             mov.w	r4,@-e7
    837c:	0d 04       	0d 04             mov.w	r0,r4
    837e:	5e 00 86 6c 	5e 00 86 6c       jsr	@0x866c:0
    8382:	5e 00 87 cc 	5e 00 87 cc       jsr	@0x87cc:0
    8386:	6b 84 8d 12 	6b 84 8d 12       mov.w	r4,@0x8d12:16
    838a:	09 44       	09 44             add.w	r4,r4
    838c:	6f 42 8c e8 	6f 42 8c e8       mov.w	@(0x8ce8:16,r4),r2
    8390:	6b 82 8d 1c 	6b 82 8d 1c       mov.w	r2,@0x8d1c:16
    8394:	6b 82 8d 16 	6b 82 8d 16       mov.w	r2,@0x8d16:16
    8398:	6f 40 8c e4 	6f 40 8c e4       mov.w	@(0x8ce4:16,r4),r0
    839c:	6b 80 8d 18 	6b 80 8d 18       mov.w	r0,@0x8d18:16
    83a0:	6f 43 8c e6 	6f 43 8c e6       mov.w	@(0x8ce6:16,r4),r3
    83a4:	6b 83 8d 1e 	6b 83 8d 1e       mov.w	r3,@0x8d1e:16
    83a8:	6f 42 8c ee 	6f 42 8c ee       mov.w	@(0x8cee:16,r4),r2
    83ac:	6b 82 8d 14 	6b 82 8d 14       mov.w	r2,@0x8d14:16
    83b0:	6f 42 8c f0 	6f 42 8c f0       mov.w	@(0x8cf0:16,r4),r2
    83b4:	6b 82 8d 1a 	6b 82 8d 1a       mov.w	r2,@0x8d1a:16
    83b8:	6f 42 8c ea 	6f 42 8c ea       mov.w	@(0x8cea:16,r4),r2
    83bc:	6b 82 8d 10 	6b 82 8d 10       mov.w	r2,@0x8d10:16
    83c0:	6b 80 8d 00 	6b 80 8d 00       mov.w	r0,@0x8d00:16
    83c4:	6b 83 8d 02 	6b 83 8d 02       mov.w	r3,@0x8d02:16
    83c8:	79 00 87 3a 	79 00 87 3a       mov.w	#0x873a,r0
    83cc:	5e 00 87 e6 	5e 00 87 e6       jsr	@0x87e6:0
    83d0:	5e 00 86 70 	5e 00 86 70       jsr	@0x8670:0
    83d4:	5e 00 87 c0 	5e 00 87 c0       jsr	@0x87c0:0

000083d8 <.ef>:
    83d8:	6d 74       	6d 74             mov.w	@r7+,r4
    83da:	54 70       	54 70             rts	

000083dc <_self>:
    83dc:	6b 00 8c 04 	6b 00 8c 04       mov.w	@0x8c04:16,r0

000083e0 <.ef>:
    83e0:	54 70       	54 70             rts	

000083e2 <_errorH>:
    83e2:	1b 87       	1b 87             subs	#0x2,er7
    83e4:	6d f4       	6d f4             mov.w	r4,@-e7
    83e6:	0d 04       	0d 04             mov.w	r0,r4
    83e8:	5e 00 87 cc 	5e 00 87 cc       jsr	@0x87cc:0
    83ec:	0d 40       	0d 40             mov.w	r4,r0
    83ee:	5e 00 8a aa 	5e 00 8a aa       jsr	@0x8aaa:0
    83f2:	0d 74       	0d 74             mov.w	r7,r4
    83f4:	0b 84       	0b 84             adds	#0x2,er4

000083f6 <.L7>:
    83f6:	0d 42       	0d 42             mov.w	r4,r2
    83f8:	79 01 30 00 	79 01 30 00       mov.w	#0x3000,r1
    83fc:	79 00 1f b6 	79 00 1f b6       mov.w	#0x1fb6,r0
    8400:	5e 00 8b 16 	5e 00 8b 16       jsr	@0x8b16:0
    8404:	6f 72 00 02 	6f 72 00 02       mov.w	@(0x2:16,r7),r2
    8408:	73 1a       	73 1a             btst	#0x1,r2l
    840a:	47 ea       	47 ea             beq	.-22 (83f6)

0000840c <.L13>:
    840c:	0d 42       	0d 42             mov.w	r4,r2
    840e:	79 01 30 00 	79 01 30 00       mov.w	#0x3000,r1
    8412:	79 00 1f b6 	79 00 1f b6       mov.w	#0x1fb6,r0
    8416:	5e 00 8b 16 	5e 00 8b 16       jsr	@0x8b16:0
    841a:	6f 72 00 02 	6f 72 00 02       mov.w	@(0x2:16,r7),r2
    841e:	73 1a       	73 1a             btst	#0x1,r2l
    8420:	46 ea       	46 ea             bne	.-22 (840c)
    8422:	55 b8       	55 b8             bsr	.-72 (83dc)
    8424:	5e 00 8a aa 	5e 00 8a aa       jsr	@0x8aaa:0

00008428 <.L19>:
    8428:	0d 42       	0d 42             mov.w	r4,r2
    842a:	79 01 30 00 	79 01 30 00       mov.w	#0x3000,r1
    842e:	79 00 1f b6 	79 00 1f b6       mov.w	#0x1fb6,r0
    8432:	5e 00 8b 16 	5e 00 8b 16       jsr	@0x8b16:0
    8436:	6f 72 00 02 	6f 72 00 02       mov.w	@(0x2:16,r7),r2
    843a:	73 1a       	73 1a             btst	#0x1,r2l
    843c:	47 ea       	47 ea             beq	.-22 (8428)

0000843e <.L25>:
    843e:	0d 42       	0d 42             mov.w	r4,r2
    8440:	79 01 30 00 	79 01 30 00       mov.w	#0x3000,r1
    8444:	79 00 1f b6 	79 00 1f b6       mov.w	#0x1fb6,r0
    8448:	5e 00 8b 16 	5e 00 8b 16       jsr	@0x8b16:0
    844c:	6f 72 00 02 	6f 72 00 02       mov.w	@(0x2:16,r7),r2
    8450:	73 1a       	73 1a             btst	#0x1,r2l
    8452:	46 ea       	46 ea             bne	.-22 (843e)
    8454:	5e 00 83 74 	5e 00 83 74       jsr	@0x8374:0
    8458:	5e 00 8a aa 	5e 00 8a aa       jsr	@0x8aaa:0

0000845c <.L31>:
    845c:	0d 42       	0d 42             mov.w	r4,r2
    845e:	79 01 30 00 	79 01 30 00       mov.w	#0x3000,r1
    8462:	79 00 1f b6 	79 00 1f b6       mov.w	#0x1fb6,r0
    8466:	5e 00 8b 16 	5e 00 8b 16       jsr	@0x8b16:0
    846a:	6f 72 00 02 	6f 72 00 02       mov.w	@(0x2:16,r7),r2
    846e:	73 1a       	73 1a             btst	#0x1,r2l
    8470:	47 ea       	47 ea             beq	.-22 (845c)

00008472 <.L37>:
    8472:	0d 42       	0d 42             mov.w	r4,r2
    8474:	79 01 30 00 	79 01 30 00       mov.w	#0x3000,r1
    8478:	79 00 1f b6 	79 00 1f b6       mov.w	#0x1fb6,r0
    847c:	5e 00 8b 16 	5e 00 8b 16       jsr	@0x8b16:0
    8480:	6f 72 00 02 	6f 72 00 02       mov.w	@(0x2:16,r7),r2
    8484:	73 1a       	73 1a             btst	#0x1,r2l
    8486:	46 ea       	46 ea             bne	.-22 (8472)
    8488:	5e 00 03 ae 	5e 00 03 ae       jsr	@0x3ae:0

0000848c <.ef>:
    848c:	6d 74       	6d 74             mov.w	@r7+,r4
    848e:	0b 87       	0b 87             adds	#0x2,er7
    8490:	54 70       	54 70             rts	

00008492 <_invokeISR>:
    8492:	6d f4       	6d f4             mov.w	r4,@-e7
    8494:	6b 03 8d 1a 	6b 03 8d 1a       mov.w	@0x8d1a:16,r3
    8498:	0d 02       	0d 02             mov.w	r0,r2
    849a:	09 22       	09 22             add.w	r2,r2
    849c:	09 22       	09 22             add.w	r2,r2
    849e:	09 22       	09 22             add.w	r2,r2
    84a0:	09 32       	09 32             add.w	r3,r2
    84a2:	6f 22 00 04 	6f 22 00 04       mov.w	@(0x4:16,r2),r2
    84a6:	69 24       	69 24             mov.w	@r2,r4
    84a8:	6b 01 8c 04 	6b 01 8c 04       mov.w	@0x8c04:16,r1
    84ac:	6b 02 8d 14 	6b 02 8d 14       mov.w	@0x8d14:16,r2
    84b0:	1d 20       	1d 20             cmp.w	r2,r0
    84b2:	43 1c       	43 1c             bls	.+28 (84d0)
    84b4:	6b 02 8d 18 	6b 02 8d 18       mov.w	@0x8d18:16,r2
    84b8:	0d 13       	0d 13             mov.w	r1,r3
    84ba:	09 33       	09 33             add.w	r3,r3
    84bc:	09 33       	09 33             add.w	r3,r3
    84be:	09 33       	09 33             add.w	r3,r3
    84c0:	09 13       	09 13             add.w	r1,r3
    84c2:	09 33       	09 33             add.w	r3,r3
    84c4:	09 23       	09 23             add.w	r2,r3
    84c6:	6f 32 00 0a 	6f 32 00 0a       mov.w	@(0xa:16,r3),r2
    84ca:	79 00 03 ec 	79 00 03 ec       mov.w	#0x3ec,r0
    84ce:	5d 20       	5d 20             jsr	@r2

000084d0 <.L2>:
    84d0:	0d 40       	0d 40             mov.w	r4,r0
    84d2:	5e 00 80 f6 	5e 00 80 f6       jsr	@0x80f6:0
    84d6:	5e 00 88 54 	5e 00 88 54       jsr	@0x8854:0

000084da <.ef>:
    84da:	6d 74       	6d 74             mov.w	@r7+,r4
    84dc:	54 70       	54 70             rts	

000084de <_insertFirst>:
    84de:	69 13       	69 13             mov.w	@r1,r3
    84e0:	46 08       	46 08             bne	.+8 (84ea)
    84e2:	6f 83 00 02 	6f 83 00 02       mov.w	r3,@(0x2:16,e0)
    84e6:	69 a0       	69 a0             mov.w	r0,@e2
    84e8:	40 04       	40 04             bra	.+4 (84ee)

000084ea <.L2>:
    84ea:	6f 83 00 02 	6f 83 00 02       mov.w	r3,@(0x2:16,e0)

000084ee <.L3>:
    84ee:	69 90       	69 90             mov.w	r0,@e1

000084f0 <.ef>:
    84f0:	54 70       	54 70             rts	

000084f2 <_insertLast>:
    84f2:	0d 23       	0d 23             mov.w	r2,r3
    84f4:	19 22       	19 22             sub.w	r2,r2
    84f6:	6f 82 00 02 	6f 82 00 02       mov.w	r2,@(0x2:16,e0)
    84fa:	69 12       	69 12             mov.w	@r1,r2
    84fc:	46 04       	46 04             bne	.+4 (8502)
    84fe:	69 90       	69 90             mov.w	r0,@e1
    8500:	40 06       	40 06             bra	.+6 (8508)

00008502 <.L5>:
    8502:	69 32       	69 32             mov.w	@r3,r2
    8504:	6f a0 00 02 	6f a0 00 02       mov.w	r0,@(0x2:16,e2)

00008508 <.L7>:
    8508:	69 b0       	69 b0             mov.w	r0,@e3

0000850a <.ef>:
    850a:	54 70       	54 70             rts	

0000850c <_getFirst>:
    850c:	69 03       	69 03             mov.w	@r0,r3
    850e:	46 04       	46 04             bne	.+4 (8514)
    8510:	19 00       	19 00             sub.w	r0,r0
    8512:	40 18       	40 18             bra	.+24 (852c)

00008514 <.L9>:
    8514:	6f 32 00 02 	6f 32 00 02       mov.w	@(0x2:16,r3),r2
    8518:	69 82       	69 82             mov.w	r2,@e0
    851a:	19 22       	19 22             sub.w	r2,r2
    851c:	6f b2 00 02 	6f b2 00 02       mov.w	r2,@(0x2:16,e3)
    8520:	69 00       	69 00             mov.w	@r0,r0
    8522:	6f 02 00 02 	6f 02 00 02       mov.w	@(0x2:16,r0),r2
    8526:	46 02       	46 02             bne	.+2 (852a)
    8528:	69 90       	69 90             mov.w	r0,@e1

0000852a <.L10>:
    852a:	0d 30       	0d 30             mov.w	r3,r0

0000852c <.L11>:
    852c:	54 70       	54 70             rts	

0000852e <_getLast>:
    852e:	6d f4       	6d f4             mov.w	r4,@-e7
    8530:	0d 04       	0d 04             mov.w	r0,r4
    8532:	0d 12       	0d 12             mov.w	r1,r2
    8534:	69 23       	69 23             mov.w	@r2,r3
    8536:	69 30       	69 30             mov.w	@r3,r0
    8538:	0d 41       	0d 41             mov.w	r4,r1
    853a:	55 04       	55 04             bsr	.+4 (8540)

0000853c <.ef>:
    853c:	6d 74       	6d 74             mov.w	@r7+,r4
    853e:	54 70       	54 70             rts	

00008540 <_getNode>:
    8540:	6d f4       	6d f4             mov.w	r4,@-e7
    8542:	6d f5       	6d f5             mov.w	r5,@-e7
    8544:	6d f6       	6d f6             mov.w	r6,@-e7
    8546:	0d 05       	0d 05             mov.w	r0,r5
    8548:	0d 13       	0d 13             mov.w	r1,r3
    854a:	0d 26       	0d 26             mov.w	r2,r6
    854c:	19 11       	19 11             sub.w	r1,r1
    854e:	19 44       	19 44             sub.w	r4,r4
    8550:	69 30       	69 30             mov.w	@r3,r0
    8552:	46 04       	46 04             bne	.+4 (8558)
    8554:	19 00       	19 00             sub.w	r0,r0
    8556:	40 44       	40 44             bra	.+68 (859c)

00008558 <.L14>:
    8558:	69 02       	69 02             mov.w	@r0,r2
    855a:	1d 52       	1d 52             cmp.w	r5,r2
    855c:	46 0a       	46 0a             bne	.+10 (8568)
    855e:	0d 61       	0d 61             mov.w	r6,r1
    8560:	0d 30       	0d 30             mov.w	r3,r0
    8562:	55 a8       	55 a8             bsr	.-88 (850c)
    8564:	0d 01       	0d 01             mov.w	r0,r1
    8566:	40 34       	40 34             bra	.+52 (859c)

00008568 <.L15>:
    8568:	6f 03 00 02 	6f 03 00 02       mov.w	@(0x2:16,r0),r3
    856c:	47 14       	47 14             beq	.+20 (8582)

0000856e <.L19>:
    856e:	69 32       	69 32             mov.w	@r3,r2
    8570:	1d 52       	1d 52             cmp.w	r5,r2
    8572:	46 02       	46 02             bne	.+2 (8576)
    8574:	0d 01       	0d 01             mov.w	r0,r1

00008576 <.L20>:
    8576:	0d 04       	0d 04             mov.w	r0,r4
    8578:	0d 30       	0d 30             mov.w	r3,r0
    857a:	6f 02 00 02 	6f 02 00 02       mov.w	@(0x2:16,r0),r2
    857e:	0d 23       	0d 23             mov.w	r2,r3
    8580:	46 ec       	46 ec             bne	.-20 (856e)

00008582 <.L18>:
    8582:	6f 10 00 02 	6f 10 00 02       mov.w	@(0x2:16,r1),r0
    8586:	6f 02 00 02 	6f 02 00 02       mov.w	@(0x2:16,r0),r2
    858a:	6f 92 00 02 	6f 92 00 02       mov.w	r2,@(0x2:16,e1)
    858e:	6f 02 00 02 	6f 02 00 02       mov.w	@(0x2:16,r0),r2
    8592:	46 02       	46 02             bne	.+2 (8596)
    8594:	69 e4       	69 e4             mov.w	r4,@e6

00008596 <.L22>:
    8596:	19 22       	19 22             sub.w	r2,r2
    8598:	6f 82 00 02 	6f 82 00 02       mov.w	r2,@(0x2:16,e0)

0000859c <.L23>:
    859c:	6d 76       	6d 76             mov.w	@r7+,r6
    859e:	6d 75       	6d 75             mov.w	@r7+,r5
    85a0:	6d 74       	6d 74             mov.w	@r7+,r4
    85a2:	54 70       	54 70             rts	

000085a4 <_raiseSignal>:
    85a4:	1b 87       	1b 87             subs	#0x2,er7
    85a6:	1b 87       	1b 87             subs	#0x2,er7
    85a8:	6d f4       	6d f4             mov.w	r4,@-e7
    85aa:	6d f5       	6d f5             mov.w	r5,@-e7
    85ac:	6d f6       	6d f6             mov.w	r6,@-e7
    85ae:	0d 04       	0d 04             mov.w	r0,r4
    85b0:	0d 42       	0d 42             mov.w	r4,r2
    85b2:	09 22       	09 22             add.w	r2,r2
    85b4:	09 22       	09 22             add.w	r2,r2
    85b6:	09 22       	09 22             add.w	r2,r2
    85b8:	6b 06 8d 1a 	6b 06 8d 1a       mov.w	@0x8d1a:16,r6
    85bc:	09 26       	09 26             add.w	r2,r6
    85be:	6f 61 00 02 	6f 61 00 02       mov.w	@(0x2:16,r6),r1
    85c2:	6f f1 00 08 	6f f1 00 08       mov.w	r1,@(0x8:16,e7)
    85c6:	19 55       	19 55             sub.w	r5,r5
    85c8:	6b 01 8c 04 	6b 01 8c 04       mov.w	@0x8c04:16,r1
    85cc:	6f f1 00 06 	6f f1 00 06       mov.w	r1,@(0x6:16,e7)
    85d0:	5e 00 86 6c 	5e 00 86 6c       jsr	@0x866c:0
    85d4:	6b 02 8d 14 	6b 02 8d 14       mov.w	@0x8d14:16,r2
    85d8:	1d 24       	1d 24             cmp.w	r2,r4
    85da:	43 5a       	43 5a             bls	.+90 (8636)
    85dc:	6b 03 8c 04 	6b 03 8c 04       mov.w	@0x8c04:16,r3
    85e0:	6b 00 8d 18 	6b 00 8d 18       mov.w	@0x8d18:16,r0
    85e4:	0d 32       	0d 32             mov.w	r3,r2
    85e6:	09 22       	09 22             add.w	r2,r2
    85e8:	09 22       	09 22             add.w	r2,r2
    85ea:	09 22       	09 22             add.w	r2,r2
    85ec:	09 32       	09 32             add.w	r3,r2
    85ee:	09 22       	09 22             add.w	r2,r2
    85f0:	09 02       	09 02             add.w	r0,r2
    85f2:	6f 22 00 0a 	6f 22 00 0a       mov.w	@(0xa:16,r2),r2
    85f6:	79 00 03 ec 	79 00 03 ec       mov.w	#0x3ec,r0
    85fa:	5d 20       	5d 20             jsr	@r2
    85fc:	40 38       	40 38             bra	.+56 (8636)

000085fe <.L6>:
    85fe:	69 62       	69 62             mov.w	@r6,r2
    8600:	0d 53       	0d 53             mov.w	r5,r3
    8602:	09 33       	09 33             add.w	r3,r3
    8604:	09 23       	09 23             add.w	r2,r3
    8606:	69 32       	69 32             mov.w	@r3,r2
    8608:	6f 71 00 06 	6f 71 00 06       mov.w	@(0x6:16,r7),r1
    860c:	1d 21       	1d 21             cmp.w	r2,r1
    860e:	46 24       	46 24             bne	.+36 (8634)
    8610:	19 55       	19 55             sub.w	r5,r5
    8612:	40 12       	40 12             bra	.+18 (8626)

00008614 <.L11>:
    8614:	6f 63 00 04 	6f 63 00 04       mov.w	@(0x4:16,r6),r3
    8618:	0d 52       	0d 52             mov.w	r5,r2
    861a:	09 22       	09 22             add.w	r2,r2
    861c:	09 32       	09 32             add.w	r3,r2
    861e:	69 20       	69 20             mov.w	@r2,r0
    8620:	5e 00 80 f6 	5e 00 80 f6       jsr	@0x80f6:0
    8624:	0b 05       	0b 05             adds	#0x1,er5

00008626 <.L15>:
    8626:	6f 62 00 06 	6f 62 00 06       mov.w	@(0x6:16,r6),r2
    862a:	1d 25       	1d 25             cmp.w	r2,r5
    862c:	45 e6       	45 e6             bcs	.-26 (8614)
    862e:	5e 00 88 54 	5e 00 88 54       jsr	@0x8854:0
    8632:	40 2c       	40 2c             bra	.+44 (8660)

00008634 <.L5>:
    8634:	0b 05       	0b 05             adds	#0x1,er5

00008636 <.L14>:
    8636:	6f 71 00 08 	6f 71 00 08       mov.w	@(0x8:16,r7),r1
    863a:	1d 15       	1d 15             cmp.w	r1,r5
    863c:	45 c0       	45 c0             bcs	.-64 (85fe)
    863e:	6b 02 8d 18 	6b 02 8d 18       mov.w	@0x8d18:16,r2
    8642:	6f 73 00 06 	6f 73 00 06       mov.w	@(0x6:16,r7),r3
    8646:	09 33       	09 33             add.w	r3,r3
    8648:	09 33       	09 33             add.w	r3,r3
    864a:	09 33       	09 33             add.w	r3,r3
    864c:	6f 71 00 06 	6f 71 00 06       mov.w	@(0x6:16,r7),r1
    8650:	09 13       	09 13             add.w	r1,r3
    8652:	09 33       	09 33             add.w	r3,r3
    8654:	09 23       	09 23             add.w	r2,r3
    8656:	6f 32 00 0a 	6f 32 00 0a       mov.w	@(0xa:16,r3),r2
    865a:	79 00 03 ed 	79 00 03 ed       mov.w	#0x3ed,r0
    865e:	5d 20       	5d 20             jsr	@r2

00008660 <.L1>:
    8660:	6d 76       	6d 76             mov.w	@r7+,r6
    8662:	6d 75       	6d 75             mov.w	@r7+,r5
    8664:	6d 74       	6d 74             mov.w	@r7+,r4
    8666:	0b 87       	0b 87             adds	#0x2,er7
    8668:	0b 87       	0b 87             adds	#0x2,er7
    866a:	54 70       	54 70             rts	

0000866c <_hal_disable_interrupt>:
    866c:	04 80       	04 80             orc	#0x80,ccr
    866e:	54 70       	54 70             rts	

00008670 <_hal_enable_interrupt>:
    8670:	06 7f       	06 7f             andc	#0x7f,ccr
    8672:	54 70       	54 70             rts	

00008674 <_hal_irq0>:
    8674:	6d 76       	6d 76             mov.w	@r7+,r6
    8676:	6d 76       	6d 76             mov.w	@r7+,r6
    8678:	55 56       	55 56             bsr	.+86 (86d0)
    867a:	79 00 00 00 	79 00 00 00       mov.w	#0x0,r0
    867e:	5e 00 84 92 	5e 00 84 92       jsr	@0x8492:0
    8682:	55 72       	55 72             bsr	.+114 (86f6)
    8684:	56 70       	56 70             rte	

00008686 <_hal_irq1>:
    8686:	6d 76       	6d 76             mov.w	@r7+,r6
    8688:	6d 76       	6d 76             mov.w	@r7+,r6
    868a:	55 44       	55 44             bsr	.+68 (86d0)
    868c:	79 00 00 01 	79 00 00 01       mov.w	#0x1,r0
    8690:	5e 00 84 92 	5e 00 84 92       jsr	@0x8492:0
    8694:	55 60       	55 60             bsr	.+96 (86f6)
    8696:	56 70       	56 70             rte	

00008698 <_hal_setIRQ0>:
    8698:	79 00 fd 94 	79 00 fd 94       mov.w	#0xfd94,r0
    869c:	79 01 86 74 	79 01 86 74       mov.w	#0x8674,r1
    86a0:	69 81       	69 81             mov.w	r1,@e0
    86a2:	79 00 ff c7 	79 00 ff c7       mov.w	#0xffc7,r0
    86a6:	7d 00 70 00 	7d 00 70 00       bset	#0x0,@r0
    86aa:	79 00 ff c6 	79 00 ff c6       mov.w	#0xffc6,r0
    86ae:	7d 00 70 00 	7d 00 70 00       bset	#0x0,@r0
    86b2:	54 70       	54 70             rts	

000086b4 <_hal_setIRQ1>:
    86b4:	79 00 fd 96 	79 00 fd 96       mov.w	#0xfd96,r0
    86b8:	79 01 86 86 	79 01 86 86       mov.w	#0x8686,r1
    86bc:	69 81       	69 81             mov.w	r1,@e0
    86be:	79 00 ff c7 	79 00 ff c7       mov.w	#0xffc7,r0
    86c2:	7d 00 70 10 	7d 00 70 10       bset	#0x1,@r0
    86c6:	79 00 ff c6 	79 00 ff c6       mov.w	#0xffc6,r0
    86ca:	7d 00 70 10 	7d 00 70 10       bset	#0x1,@r0
    86ce:	54 70       	54 70             rts	

000086d0 <_hal_storeRegisters>:
    86d0:	6d f0       	6d f0             mov.w	r0,@-e7
    86d2:	6b 00 8c f2 	6b 00 8c f2       mov.w	@0x8cf2:16,r0
    86d6:	6f 81 00 02 	6f 81 00 02       mov.w	r1,@(0x2:16,e0)
    86da:	6d 71       	6d 71             mov.w	@r7+,r1
    86dc:	6f 81 00 00 	6f 81 00 00       mov.w	r1,@(0x0:16,e0)
    86e0:	6f 82 00 04 	6f 82 00 04       mov.w	r2,@(0x4:16,e0)
    86e4:	6f 83 00 06 	6f 83 00 06       mov.w	r3,@(0x6:16,e0)
    86e8:	6f 84 00 08 	6f 84 00 08       mov.w	r4,@(0x8:16,e0)
    86ec:	6f 85 00 0a 	6f 85 00 0a       mov.w	r5,@(0xa:16,e0)
    86f0:	6f 86 00 0c 	6f 86 00 0c       mov.w	r6,@(0xc:16,e0)
    86f4:	54 70       	54 70             rts	

000086f6 <_hal_retrieveRegisters>:
    86f6:	6b 00 8c f2 	6b 00 8c f2       mov.w	@0x8cf2:16,r0
    86fa:	6f 06 00 0c 	6f 06 00 0c       mov.w	@(0xc:16,r0),r6
    86fe:	6f 05 00 0a 	6f 05 00 0a       mov.w	@(0xa:16,r0),r5
    8702:	6f 04 00 08 	6f 04 00 08       mov.w	@(0x8:16,r0),r4
    8706:	6f 03 00 06 	6f 03 00 06       mov.w	@(0x6:16,r0),r3
    870a:	6f 02 00 04 	6f 02 00 04       mov.w	@(0x4:16,r0),r2
    870e:	6f 01 00 02 	6f 01 00 02       mov.w	@(0x2:16,r0),r1
    8712:	6f 00 00 00 	6f 00 00 00       mov.w	@(0x0:16,r0),r0
    8716:	54 70       	54 70             rts	

00008718 <_hal_initStack>:
    8718:	6d 76       	6d 76             mov.w	@r7+,r6
    871a:	0d 75       	0d 75             mov.w	r7,r5
    871c:	0d 07       	0d 07             mov.w	r0,r7
    871e:	6d f5       	6d f5             mov.w	r5,@-e7
    8720:	6d f6       	6d f6             mov.w	r6,@-e7
    8722:	54 70       	54 70             rts	

00008724 <_hal_restoreStack>:
    8724:	6d 77       	6d 77             mov.w	@r7+,r7
    8726:	54 70       	54 70             rts	

00008728 <_hal_clearRegisters>:
    8728:	79 00 00 00 	79 00 00 00       mov.w	#0x0,r0
    872c:	0d 01       	0d 01             mov.w	r0,r1
    872e:	0d 02       	0d 02             mov.w	r0,r2
    8730:	0d 03       	0d 03             mov.w	r0,r3
    8732:	0d 04       	0d 04             mov.w	r0,r4
    8734:	0d 05       	0d 05             mov.w	r0,r5
    8736:	0d 06       	0d 06             mov.w	r0,r6
    8738:	54 70       	54 70             rts	

0000873a <_hal_timertick>:
    873a:	79 06 ff 91 	79 06 ff 91       mov.w	#0xff91,r6
    873e:	7d 60 72 30 	7d 60 72 30       bclr	#0x3,@r6
    8742:	6b 06 8d 02 	6b 06 8d 02       mov.w	@0x8d02:16,r6
    8746:	6f e0 00 08 	6f e0 00 08       mov.w	r0,@(0x8:16,e6)
    874a:	6f e1 00 0a 	6f e1 00 0a       mov.w	r1,@(0xa:16,e6)
    874e:	6f e2 00 0c 	6f e2 00 0c       mov.w	r2,@(0xc:16,e6)
    8752:	6f e3 00 0e 	6f e3 00 0e       mov.w	r3,@(0xe:16,e6)
    8756:	6f e4 00 10 	6f e4 00 10       mov.w	r4,@(0x10:16,e6)
    875a:	6f e5 00 12 	6f e5 00 12       mov.w	r5,@(0x12:16,e6)
    875e:	6f 75 00 02 	6f 75 00 02       mov.w	@(0x2:16,r7),r5
    8762:	6f e5 00 14 	6f e5 00 14       mov.w	r5,@(0x14:16,e6)
    8766:	6f 75 00 04 	6f 75 00 04       mov.w	@(0x4:16,r7),r5
    876a:	6f e5 00 06 	6f e5 00 06       mov.w	r5,@(0x6:16,e6)
    876e:	6f 75 00 06 	6f 75 00 06       mov.w	@(0x6:16,r7),r5
    8772:	6f e5 00 04 	6f e5 00 04       mov.w	r5,@(0x4:16,e6)
    8776:	5e 00 81 72 	5e 00 81 72       jsr	@0x8172:0
    877a:	5e 00 80 46 	5e 00 80 46       jsr	@0x8046:0
    877e:	5e 00 82 66 	5e 00 82 66       jsr	@0x8266:0
    8782:	79 01 00 08 	79 01 00 08       mov.w	#0x8,r1
    8786:	09 17       	09 17             add.w	r1,r7
    8788:	73 18       	73 18             btst	#0x1,r0l
    878a:	47 06       	47 06             beq	.+6 (8792)
    878c:	79 00 88 0e 	79 00 88 0e       mov.w	#0x880e,r0
    8790:	6d f0       	6d f0             mov.w	r0,@-e7

00008792 <nopush_t_return>:
    8792:	6b 00 8d 02 	6b 00 8d 02       mov.w	@0x8d02:16,r0
    8796:	6f 01 00 04 	6f 01 00 04       mov.w	@(0x4:16,r0),r1
    879a:	6d f1       	6d f1             mov.w	r1,@-e7
    879c:	6f 01 00 06 	6f 01 00 06       mov.w	@(0x6:16,r0),r1
    87a0:	6d f1       	6d f1             mov.w	r1,@-e7
    87a2:	6f 06 00 14 	6f 06 00 14       mov.w	@(0x14:16,r0),r6
    87a6:	6f 05 00 12 	6f 05 00 12       mov.w	@(0x12:16,r0),r5
    87aa:	6f 04 00 10 	6f 04 00 10       mov.w	@(0x10:16,r0),r4
    87ae:	6f 03 00 0e 	6f 03 00 0e       mov.w	@(0xe:16,r0),r3
    87b2:	6f 02 00 0c 	6f 02 00 0c       mov.w	@(0xc:16,r0),r2
    87b6:	6f 01 00 0a 	6f 01 00 0a       mov.w	@(0xa:16,r0),r1
    87ba:	6f 00 00 08 	6f 00 00 08       mov.w	@(0x8:16,r0),r0
    87be:	56 70       	56 70             rte	

000087c0 <_hal_startTimer>:
    87c0:	79 00 ff 90 	79 00 ff 90       mov.w	#0xff90,r0
    87c4:	7d 00 70 30 	7d 00 70 30       bset	#0x3,@r0
    87c8:	06 7f       	06 7f             andc	#0x7f,ccr
    87ca:	54 70       	54 70             rts	

000087cc <_hal_stopTimer>:
    87cc:	04 80       	04 80             orc	#0x80,ccr
    87ce:	79 00 ff 90 	79 00 ff 90       mov.w	#0xff90,r0
    87d2:	7d 00 72 30 	7d 00 72 30       bclr	#0x3,@r0
    87d6:	54 70       	54 70             rts	

000087d8 <_hal_readTimer>:
    87d8:	79 01 ff 92 	79 01 ff 92       mov.w	#0xff92,r1
    87dc:	69 16       	69 16             mov.w	@r1,r6
    87de:	54 70       	54 70             rts	

000087e0 <_hal_getFRCval>:
    87e0:	6b 06 ff 92 	6b 06 ff 92       mov.w	@0xff92:16,r6
    87e4:	54 70       	54 70             rts	

000087e6 <_hal_initTimer>:
    87e6:	04 80       	04 80             orc	#0x80,ccr
    87e8:	6d f0       	6d f0             mov.w	r0,@-e7
    87ea:	79 00 ff 91 	79 00 ff 91       mov.w	#0xff91,r0
    87ee:	f9 01       	f9 01             mov.b	#0x1,r1l
    87f0:	68 89       	68 89             mov.b	r1l,@e0
    87f2:	79 00 ff 96 	79 00 ff 96       mov.w	#0xff96,r0
    87f6:	f9 02       	f9 02             mov.b	#0x2,r1l
    87f8:	68 89       	68 89             mov.b	r1l,@e0
    87fa:	79 00 ff 94 	79 00 ff 94       mov.w	#0xff94,r0
    87fe:	6b 01 8d 10 	6b 01 8d 10       mov.w	@0x8d10:16,r1
    8802:	69 81       	69 81             mov.w	r1,@e0
    8804:	79 00 fd a2 	79 00 fd a2       mov.w	#0xfda2,r0
    8808:	6d 71       	6d 71             mov.w	@r7+,r1
    880a:	69 81       	69 81             mov.w	r1,@e0
    880c:	54 70       	54 70             rts	

0000880e <_hal_t_return>:
    880e:	04 80       	04 80             orc	#0x80,ccr
    8810:	6b 00 8c 04 	6b 00 8c 04       mov.w	@0x8c04:16,r0
    8814:	5e 00 82 f0 	5e 00 82 f0       jsr	@0x82f0:0
    8818:	5e 00 80 46 	5e 00 80 46       jsr	@0x8046:0
    881c:	5e 00 82 66 	5e 00 82 66       jsr	@0x8266:0
    8820:	73 18       	73 18             btst	#0x1,r0l
    8822:	47 06       	47 06             beq	.+6 (882a)
    8824:	79 00 88 0e 	79 00 88 0e       mov.w	#0x880e,r0
    8828:	6d f0       	6d f0             mov.w	r0,@-e7

0000882a <nopush_t_return>:
    882a:	6b 00 8d 02 	6b 00 8d 02       mov.w	@0x8d02:16,r0
    882e:	6f 01 00 04 	6f 01 00 04       mov.w	@(0x4:16,r0),r1
    8832:	6d f1       	6d f1             mov.w	r1,@-e7
    8834:	6f 06 00 14 	6f 06 00 14       mov.w	@(0x14:16,r0),r6
    8838:	6f 05 00 12 	6f 05 00 12       mov.w	@(0x12:16,r0),r5
    883c:	6f 04 00 10 	6f 04 00 10       mov.w	@(0x10:16,r0),r4
    8840:	6f 03 00 0e 	6f 03 00 0e       mov.w	@(0xe:16,r0),r3
    8844:	6f 02 00 0c 	6f 02 00 0c       mov.w	@(0xc:16,r0),r2
    8848:	6f 01 00 0a 	6f 01 00 0a       mov.w	@(0xa:16,r0),r1
    884c:	6f 00 00 08 	6f 00 00 08       mov.w	@(0x8:16,r0),r0
    8850:	06 7f       	06 7f             andc	#0x7f,ccr
    8852:	54 70       	54 70             rts	

00008854 <_hal_yield>:
    8854:	04 80       	04 80             orc	#0x80,ccr
    8856:	6b 80 8e de 	6b 80 8e de       mov.w	r0,@0x8ede:16
    885a:	6b 86 8e c0 	6b 86 8e c0       mov.w	r6,@0x8ec0:16
    885e:	69 70       	69 70             mov.w	@r7,r0
    8860:	6b 80 8e c2 	6b 80 8e c2       mov.w	r0,@0x8ec2:16
    8864:	6b 00 8d 02 	6b 00 8d 02       mov.w	@0x8d02:16,r0
    8868:	6f 81 00 0a 	6f 81 00 0a       mov.w	r1,@(0xa:16,e0)
    886c:	6b 01 8e de 	6b 01 8e de       mov.w	@0x8ede:16,r1
    8870:	6f 81 00 08 	6f 81 00 08       mov.w	r1,@(0x8:16,e0)
    8874:	6f 82 00 0c 	6f 82 00 0c       mov.w	r2,@(0xc:16,e0)
    8878:	6f 83 00 0e 	6f 83 00 0e       mov.w	r3,@(0xe:16,e0)
    887c:	6f 84 00 10 	6f 84 00 10       mov.w	r4,@(0x10:16,e0)
    8880:	6f 85 00 12 	6f 85 00 12       mov.w	r5,@(0x12:16,e0)
    8884:	6b 06 8e c0 	6b 06 8e c0       mov.w	@0x8ec0:16,r6
    8888:	6f 86 00 14 	6f 86 00 14       mov.w	r6,@(0x14:16,e0)
    888c:	6b 01 8e c2 	6b 01 8e c2       mov.w	@0x8ec2:16,r1
    8890:	6f 81 00 04 	6f 81 00 04       mov.w	r1,@(0x4:16,e0)
    8894:	5e 00 80 46 	5e 00 80 46       jsr	@0x8046:0
    8898:	5e 00 82 66 	5e 00 82 66       jsr	@0x8266:0
    889c:	6d 71       	6d 71             mov.w	@r7+,r1
    889e:	73 18       	73 18             btst	#0x1,r0l
    88a0:	47 06       	47 06             beq	.+6 (88a8)
    88a2:	79 00 88 0e 	79 00 88 0e       mov.w	#0x880e,r0
    88a6:	6d f0       	6d f0             mov.w	r0,@-e7

000088a8 <nopush_t_return3>:
    88a8:	6b 00 8d 02 	6b 00 8d 02       mov.w	@0x8d02:16,r0
    88ac:	6f 01 00 04 	6f 01 00 04       mov.w	@(0x4:16,r0),r1
    88b0:	6d f1       	6d f1             mov.w	r1,@-e7
    88b2:	6f 06 00 14 	6f 06 00 14       mov.w	@(0x14:16,r0),r6
    88b6:	6f 05 00 12 	6f 05 00 12       mov.w	@(0x12:16,r0),r5
    88ba:	6f 04 00 10 	6f 04 00 10       mov.w	@(0x10:16,r0),r4
    88be:	6f 03 00 0e 	6f 03 00 0e       mov.w	@(0xe:16,r0),r3
    88c2:	6f 02 00 0c 	6f 02 00 0c       mov.w	@(0xc:16,r0),r2
    88c6:	6f 01 00 0a 	6f 01 00 0a       mov.w	@(0xa:16,r0),r1
    88ca:	6f 00 00 08 	6f 00 00 08       mov.w	@(0x8:16,r0),r0
    88ce:	06 7f       	06 7f             andc	#0x7f,ccr
    88d0:	54 70       	54 70             rts	

000088d2 <_irq0_isr>:
    88d2:	54 70       	54 70             rts	

000088d4 <_irq1_isr>:
    88d4:	fa 01       	fa 01             mov.b	#0x1,r2l
    88d6:	6a 8a ff cc 	6a 8a ff cc       mov.b	r2l,@0xffcc:16
    88da:	6b 02 00 00 	6b 02 00 00       mov.w	@0x0:16,r2
    88de:	5d 20       	5d 20             jsr	@r2

000088e0 <.ef>:
    88e0:	54 70       	54 70             rts	

000088e2 <_irqerror>:
    88e2:	6d f4       	6d f4             mov.w	r4,@-e7
    88e4:	0d 04       	0d 04             mov.w	r0,r4
    88e6:	5e 00 87 cc 	5e 00 87 cc       jsr	@0x87cc:0
    88ea:	0d 40       	0d 40             mov.w	r4,r0
    88ec:	5e 00 8a aa 	5e 00 8a aa       jsr	@0x8aaa:0

000088f0 <.L8>:
    88f0:	40 fe       	40 fe             bra	.-2 (88f0)

000088f2 <_userinit>:
    88f2:	6b 02 8c e2 	6b 02 8c e2       mov.w	@0x8ce2:16,r2
    88f6:	6b 82 8e e0 	6b 82 8e e0       mov.w	r2,@0x8ee0:16

000088fa <.bb>:
    88fa:	79 00 14 98 	79 00 14 98       mov.w	#0x1498,r0
    88fe:	5e 00 8a f2 	5e 00 8a f2       jsr	@0x8af2:0

00008902 <.eb>:
    8902:	54 70       	54 70             rts	

00008904 <_idletask>:
    8904:	54 70       	54 70             rts	

00008906 <_task_a>:
    8906:	79 02 8c f4 	79 02 8c f4       mov.w	#0x8cf4,r2
    890a:	69 23       	69 23             mov.w	@r2,r3
    890c:	0d 30       	0d 30             mov.w	r3,r0
    890e:	0b 03       	0b 03             adds	#0x1,er3
    8910:	69 a3       	69 a3             mov.w	r3,@e2
    8912:	5e 00 8a aa 	5e 00 8a aa       jsr	@0x8aaa:0

00008916 <.ef>:
    8916:	54 70       	54 70             rts	

00008918 <_cputc_native_0>:
    8918:	77 28       	77 28             bld	#0x2,r0l
    891a:	79 02 ef 44 	79 02 ef 44       mov.w	#0xef44,r2
    891e:	7d 20 67 40 	7d 20 67 40       bst	#0x4,@r2
    8922:	77 08       	77 08             bld	#0x0,r0l
    8924:	7d 20 67 50 	7d 20 67 50       bst	#0x5,@r2
    8928:	77 58       	77 58             bld	#0x5,r0l
    892a:	7d 20 67 70 	7d 20 67 70       bst	#0x7,@r2
    892e:	77 18       	77 18             bld	#0x1,r0l
    8930:	79 02 ef 45 	79 02 ef 45       mov.w	#0xef45,r2
    8934:	7d 20 67 50 	7d 20 67 50       bst	#0x5,@r2
    8938:	77 68       	77 68             bld	#0x6,r0l
    893a:	7d 20 67 70 	7d 20 67 70       bst	#0x7,@r2
    893e:	77 38       	77 38             bld	#0x3,r0l
    8940:	79 02 ef 47 	79 02 ef 47       mov.w	#0xef47,r2
    8944:	7d 20 67 50 	7d 20 67 50       bst	#0x5,@r2
    8948:	77 48       	77 48             bld	#0x4,r0l
    894a:	7d 20 67 70 	7d 20 67 70       bst	#0x7,@r2

0000894e <.ef>:
    894e:	54 70       	54 70             rts	

00008950 <_cputc_native_1>:
    8950:	77 28       	77 28             bld	#0x2,r0l
    8952:	79 02 ef 43 	79 02 ef 43       mov.w	#0xef43,r2
    8956:	7d 20 67 40 	7d 20 67 40       bst	#0x4,@r2
    895a:	77 08       	77 08             bld	#0x0,r0l
    895c:	7d 20 67 50 	7d 20 67 50       bst	#0x5,@r2
    8960:	77 58       	77 58             bld	#0x5,r0l
    8962:	7d 20 67 70 	7d 20 67 70       bst	#0x7,@r2
    8966:	77 18       	77 18             bld	#0x1,r0l
    8968:	79 02 ef 47 	79 02 ef 47       mov.w	#0xef47,r2
    896c:	7d 20 67 10 	7d 20 67 10       bst	#0x1,@r2
    8970:	77 68       	77 68             bld	#0x6,r0l
    8972:	7d 20 67 30 	7d 20 67 30       bst	#0x3,@r2
    8976:	77 38       	77 38             bld	#0x3,r0l
    8978:	79 02 ef 48 	79 02 ef 48       mov.w	#0xef48,r2
    897c:	7d 20 67 50 	7d 20 67 50       bst	#0x5,@r2
    8980:	77 48       	77 48             bld	#0x4,r0l
    8982:	7d 20 67 70 	7d 20 67 70       bst	#0x7,@r2

00008986 <.ef>:
    8986:	54 70       	54 70             rts	

00008988 <_cputc_native_2>:
    8988:	77 28       	77 28             bld	#0x2,r0l
    898a:	79 02 ef 44 	79 02 ef 44       mov.w	#0xef44,r2
    898e:	7d 20 67 00 	7d 20 67 00       bst	#0x0,@r2
    8992:	77 08       	77 08             bld	#0x0,r0l
    8994:	7d 20 67 10 	7d 20 67 10       bst	#0x1,@r2
    8998:	77 58       	77 58             bld	#0x5,r0l
    899a:	7d 20 67 30 	7d 20 67 30       bst	#0x3,@r2
    899e:	77 18       	77 18             bld	#0x1,r0l
    89a0:	79 02 ef 48 	79 02 ef 48       mov.w	#0xef48,r2
    89a4:	7d 20 67 10 	7d 20 67 10       bst	#0x1,@r2
    89a8:	77 68       	77 68             bld	#0x6,r0l
    89aa:	7d 20 67 30 	7d 20 67 30       bst	#0x3,@r2
    89ae:	77 38       	77 38             bld	#0x3,r0l
    89b0:	79 02 ef 49 	79 02 ef 49       mov.w	#0xef49,r2
    89b4:	7d 20 67 50 	7d 20 67 50       bst	#0x5,@r2
    89b8:	77 48       	77 48             bld	#0x4,r0l
    89ba:	7d 20 67 70 	7d 20 67 70       bst	#0x7,@r2

000089be <.ef>:
    89be:	54 70       	54 70             rts	

000089c0 <_cputc_native_3>:
    89c0:	77 28       	77 28             bld	#0x2,r0l
    89c2:	79 02 ef 46 	79 02 ef 46       mov.w	#0xef46,r2
    89c6:	7d 20 67 00 	7d 20 67 00       bst	#0x0,@r2
    89ca:	77 08       	77 08             bld	#0x0,r0l
    89cc:	7d 20 67 10 	7d 20 67 10       bst	#0x1,@r2
    89d0:	77 58       	77 58             bld	#0x5,r0l
    89d2:	7d 20 67 30 	7d 20 67 30       bst	#0x3,@r2
    89d6:	77 18       	77 18             bld	#0x1,r0l
    89d8:	79 02 ef 4b 	79 02 ef 4b       mov.w	#0xef4b,r2
    89dc:	7d 20 67 10 	7d 20 67 10       bst	#0x1,@r2
    89e0:	77 68       	77 68             bld	#0x6,r0l
    89e2:	7d 20 67 30 	7d 20 67 30       bst	#0x3,@r2
    89e6:	77 38       	77 38             bld	#0x3,r0l
    89e8:	7d 20 67 50 	7d 20 67 50       bst	#0x5,@r2
    89ec:	77 48       	77 48             bld	#0x4,r0l
    89ee:	7d 20 67 70 	7d 20 67 70       bst	#0x7,@r2

000089f2 <.ef>:
    89f2:	54 70       	54 70             rts	

000089f4 <_cputc_native_4>:
    89f4:	77 28       	77 28             bld	#0x2,r0l
    89f6:	79 02 ef 46 	79 02 ef 46       mov.w	#0xef46,r2
    89fa:	7d 20 67 40 	7d 20 67 40       bst	#0x4,@r2
    89fe:	77 08       	77 08             bld	#0x0,r0l
    8a00:	7d 20 67 50 	7d 20 67 50       bst	#0x5,@r2
    8a04:	77 58       	77 58             bld	#0x5,r0l
    8a06:	7d 20 67 70 	7d 20 67 70       bst	#0x7,@r2
    8a0a:	77 18       	77 18             bld	#0x1,r0l
    8a0c:	79 02 ef 4a 	79 02 ef 4a       mov.w	#0xef4a,r2
    8a10:	7d 20 67 10 	7d 20 67 10       bst	#0x1,@r2
    8a14:	77 68       	77 68             bld	#0x6,r0l
    8a16:	7d 20 67 30 	7d 20 67 30       bst	#0x3,@r2
    8a1a:	77 38       	77 38             bld	#0x3,r0l
    8a1c:	7d 20 67 50 	7d 20 67 50       bst	#0x5,@r2
    8a20:	77 48       	77 48             bld	#0x4,r0l
    8a22:	7d 20 67 70 	7d 20 67 70       bst	#0x7,@r2

00008a26 <.ef>:
    8a26:	54 70       	54 70             rts	

00008a28 <_cputc_native>:
    8a28:	79 02 00 04 	79 02 00 04       mov.w	#0x4,r2
    8a2c:	1d 21       	1d 21             cmp.w	r2,r1
    8a2e:	42 24       	42 24             bhi	.+36 (8a54)
    8a30:	09 11       	09 11             add.w	r1,r1
    8a32:	6f 12 8b f8 	6f 12 8b f8       mov.w	@(0x8bf8:16,r1),r2
    8a36:	59 20       	59 20             jmp	@r2
    8a38:	40 1a       	40 1a             bra	.+26 (8a54)

00008a3a <.L12>:
    8a3a:	5e 00 89 18 	5e 00 89 18       jsr	@0x8918:0
    8a3e:	40 14       	40 14             bra	.+20 (8a54)

00008a40 <.L13>:
    8a40:	5e 00 89 50 	5e 00 89 50       jsr	@0x8950:0
    8a44:	40 0e       	40 0e             bra	.+14 (8a54)

00008a46 <.L14>:
    8a46:	5e 00 89 88 	5e 00 89 88       jsr	@0x8988:0
    8a4a:	40 08       	40 08             bra	.+8 (8a54)

00008a4c <.L15>:
    8a4c:	5e 00 89 c0 	5e 00 89 c0       jsr	@0x89c0:0
    8a50:	40 02       	40 02             bra	.+2 (8a54)

00008a52 <.L16>:
    8a52:	55 a0       	55 a0             bsr	.-96 (89f4)

00008a54 <.L11>:
    8a54:	54 70       	54 70             rts	

00008a56 <_printHex>:
    8a56:	6d f4       	6d f4             mov.w	r4,@-e7
    8a58:	6d f5       	6d f5             mov.w	r5,@-e7
    8a5a:	6d f6       	6d f6             mov.w	r6,@-e7
    8a5c:	0d 05       	0d 05             mov.w	r0,r5
    8a5e:	79 04 00 01 	79 04 00 01       mov.w	#0x1,r4
    8a62:	79 06 8b 78 	79 06 8b 78       mov.w	#0x8b78,r6

00008a66 <.L23>:
    8a66:	0d 53       	0d 53             mov.w	r5,r3
    8a68:	eb 0f       	eb 0f             and.b	#0xf,r3l
    8a6a:	e3 00       	e3 00             and.b	#0x0,r3h
    8a6c:	11 05       	11 05             shlr	r5h
    8a6e:	13 0d       	13 0d             rotxr	r5l
    8a70:	11 05       	11 05             shlr	r5h
    8a72:	13 0d       	13 0d             rotxr	r5l
    8a74:	11 05       	11 05             shlr	r5h
    8a76:	13 0d       	13 0d             rotxr	r5l
    8a78:	11 05       	11 05             shlr	r5h
    8a7a:	13 0d       	13 0d             rotxr	r5l
    8a7c:	79 02 00 09 	79 02 00 09       mov.w	#0x9,r2
    8a80:	0d 30       	0d 30             mov.w	r3,r0
    8a82:	88 30       	88 30             add.b	#0x30,r0l
    8a84:	90 00       	90 00             addx	#0x0,r0h
    8a86:	1d 23       	1d 23             cmp.w	r2,r3
    8a88:	43 06       	43 06             bls	.+6 (8a90)
    8a8a:	79 00 00 37 	79 00 00 37       mov.w	#0x37,r0
    8a8e:	09 30       	09 30             add.w	r3,r0

00008a90 <.L24>:
    8a90:	09 60       	09 60             add.w	r6,r0
    8a92:	68 08       	68 08             mov.b	@r0,r0l
    8a94:	0d 41       	0d 41             mov.w	r4,r1
    8a96:	55 90       	55 90             bsr	.-112 (8a28)
    8a98:	0b 04       	0b 04             adds	#0x1,er4
    8a9a:	79 02 00 04 	79 02 00 04       mov.w	#0x4,r2
    8a9e:	1d 24       	1d 24             cmp.w	r2,r4
    8aa0:	4f c4       	4f c4             ble	.-60 (8a66)

00008aa2 <.ef>:
    8aa2:	6d 76       	6d 76             mov.w	@r7+,r6
    8aa4:	6d 75       	6d 75             mov.w	@r7+,r5
    8aa6:	6d 74       	6d 74             mov.w	@r7+,r4
    8aa8:	54 70       	54 70             rts	

00008aaa <_outputLCD>:
    8aaa:	6d f4       	6d f4             mov.w	r4,@-e7
    8aac:	0d 04       	0d 04             mov.w	r0,r4
    8aae:	55 1e       	55 1e             bsr	.+30 (8ace)
    8ab0:	79 02 30 02 	79 02 30 02       mov.w	#0x3002,r2

00008ab4 <.bb>:
    8ab4:	6d f2       	6d f2             mov.w	r2,@-e7
    8ab6:	0d 42       	0d 42             mov.w	r4,r2
    8ab8:	79 01 30 01 	79 01 30 01       mov.w	#0x3001,r1
    8abc:	79 00 1f f2 	79 00 1f f2       mov.w	#0x1ff2,r0
    8ac0:	55 64       	55 64             bsr	.+100 (8b26)
    8ac2:	0b 87       	0b 87             adds	#0x2,er7

00008ac4 <.bb>:
    8ac4:	79 00 27 c8 	79 00 27 c8       mov.w	#0x27c8,r0
    8ac8:	55 28       	55 28             bsr	.+40 (8af2)

00008aca <.eb>:
    8aca:	6d 74       	6d 74             mov.w	@r7+,r4
    8acc:	54 70       	54 70             rts	

00008ace <_clearDisplay>:
    8ace:	79 00 27 ac 	79 00 27 ac       mov.w	#0x27ac,r0
    8ad2:	55 1e       	55 1e             bsr	.+30 (8af2)

00008ad4 <.ef>:
    8ad4:	54 70       	54 70             rts	
    8ad6:	00 08       	00 08        .word	H'0,H'8

00008ad8 <_mDelay>:
    8ad8:	19 33       	19 33             sub.w	r3,r3
    8ada:	1d 03       	1d 03             cmp.w	r0,r3
    8adc:	4c 12       	4c 12             bge	.+18 (8af0)
    8ade:	79 01 02 9f 	79 01 02 9f       mov.w	#0x29f,r1

00008ae2 <.L5>:
    8ae2:	19 22       	19 22             sub.w	r2,r2

00008ae4 <.L8>:
    8ae4:	0b 02       	0b 02             adds	#0x1,er2
    8ae6:	1d 12       	1d 12             cmp.w	r1,r2
    8ae8:	4f fa       	4f fa             ble	.-6 (8ae4)
    8aea:	0b 03       	0b 03             adds	#0x1,er3
    8aec:	1d 03       	1d 03             cmp.w	r0,r3
    8aee:	4d f2       	4d f2             blt	.-14 (8ae2)

00008af0 <.L3>:
    8af0:	54 70       	54 70             rts	

00008af2 <___rcall0>:
    8af2:	6d f6       	6d f6             mov.w	r6,@-e7
    8af4:	5d 00       	5d 00             jsr	@r0
    8af6:	0d 60       	0d 60             mov.w	r6,r0
    8af8:	6d 76       	6d 76             mov.w	@r7+,r6
    8afa:	54 70       	54 70             rts	

00008afc <.bf>:
    8afc:	fa 01       	fa 01             mov.b	#0x1,r2l
    8afe:	6a 8a ff cc 	6a 8a ff cc       mov.b	r2l,@0xffcc:16
    8b02:	6b 02 00 00 	6b 02 00 00       mov.w	@0x0:16,r2
    8b06:	5d 20       	5d 20             jsr	@r2

00008b08 <.ef>:
    8b08:	54 70       	54 70             rts	

00008b0a <___rcall1>:
    8b0a:	6d f6       	6d f6             mov.w	r6,@-e7
    8b0c:	0d 16       	0d 16             mov.w	r1,r6
    8b0e:	5d 00       	5d 00             jsr	@r0
    8b10:	0d 60       	0d 60             mov.w	r6,r0
    8b12:	6d 76       	6d 76             mov.w	@r7+,r6
    8b14:	54 70       	54 70             rts	

00008b16 <___rcall2>:
    8b16:	6d f6       	6d f6             mov.w	r6,@-e7
    8b18:	6d f2       	6d f2             mov.w	r2,@-e7
    8b1a:	0d 16       	0d 16             mov.w	r1,r6
    8b1c:	5d 00       	5d 00             jsr	@r0
    8b1e:	0d 60       	0d 60             mov.w	r6,r0
    8b20:	0b 87       	0b 87             adds	#0x2,er7
    8b22:	6d 76       	6d 76             mov.w	@r7+,r6
    8b24:	54 70       	54 70             rts	

00008b26 <___rcall3>:
    8b26:	6d f6       	6d f6             mov.w	r6,@-e7
    8b28:	6f 73 00 04 	6f 73 00 04       mov.w	@(0x4:16,r7),r3
    8b2c:	6d f3       	6d f3             mov.w	r3,@-e7
    8b2e:	6d f2       	6d f2             mov.w	r2,@-e7
    8b30:	0d 16       	0d 16             mov.w	r1,r6
    8b32:	5d 00       	5d 00             jsr	@r0
    8b34:	0d 60       	0d 60             mov.w	r6,r0
    8b36:	0b 87       	0b 87             adds	#0x2,er7
    8b38:	0b 87       	0b 87             adds	#0x2,er7
    8b3a:	6d 76       	6d 76             mov.w	@r7+,r6
    8b3c:	54 70       	54 70             rts	

00008b3e <___rcall4>:
    8b3e:	6d f6       	6d f6             mov.w	r6,@-e7
    8b40:	6f 73 00 06 	6f 73 00 06       mov.w	@(0x6:16,r7),r3
    8b44:	6d f3       	6d f3             mov.w	r3,@-e7
    8b46:	6f 73 00 06 	6f 73 00 06       mov.w	@(0x6:16,r7),r3
    8b4a:	6d f3       	6d f3             mov.w	r3,@-e7
    8b4c:	6d f2       	6d f2             mov.w	r2,@-e7
    8b4e:	0d 16       	0d 16             mov.w	r1,r6
    8b50:	5d 00       	5d 00             jsr	@r0
    8b52:	0d 60       	0d 60             mov.w	r6,r0
    8b54:	8f 06       	8f 06             add.b	#0x6,r7l
    8b56:	97 00       	97 00             addx	#0x0,r7h
    8b58:	6d 76       	6d 76             mov.w	@r7+,r6
    8b5a:	54 70       	54 70             rts	

00008b5c <.LC0>:
    8b5c:	44 6f       	44 6f             bcc	.+111 (8bcd)
    8b5e:	20 79       	20 79             mov.b	@0x79:8,r0h
    8b60:	6f 75 20 62 	6f 75 20 62       mov.w	@(0x2062:16,r7),r5
    8b64:	79 74       	79 74        .word	H'79,H'74
    8b66:	65 2c       	65 2c             xor.w	r2,e4
    8b68:	20 77       	20 77             mov.b	@0x77:8,r0h
    8b6a:	68 65       	68 65             mov.b	@r6,r5h
    8b6c:	6e 20 49 20 	6e 20 49 20       mov.b	@(0x4920:16,r2),r0h
    8b70:	6b 6e       	6b 6e        .word	H'6b,H'6e
    8b72:	6f 63 6b 3f 	6f 63 6b 3f       mov.w	@(0x6b3f:16,r6),r3
	...

00008b78 <_ascii_display_codes>:
    8b78:	00 20       	00 20        .word	H'0,H'20
    8b7a:	20 20       	20 20             mov.b	@0x20:8,r0h
    8b7c:	20 20       	20 20             mov.b	@0x20:8,r0h
    8b7e:	20 20       	20 20             mov.b	@0x20:8,r0h
    8b80:	20 20       	20 20             mov.b	@0x20:8,r0h
    8b82:	20 20       	20 20             mov.b	@0x20:8,r0h
    8b84:	20 20       	20 20             mov.b	@0x20:8,r0h
    8b86:	20 20       	20 20             mov.b	@0x20:8,r0h
    8b88:	20 20       	20 20             mov.b	@0x20:8,r0h
    8b8a:	20 20       	20 20             mov.b	@0x20:8,r0h
    8b8c:	20 20       	20 20             mov.b	@0x20:8,r0h
    8b8e:	20 20       	20 20             mov.b	@0x20:8,r0h
    8b90:	20 20       	20 20             mov.b	@0x20:8,r0h
    8b92:	20 20       	20 20             mov.b	@0x20:8,r0h
    8b94:	20 20       	20 20             mov.b	@0x20:8,r0h
    8b96:	20 20       	20 20             mov.b	@0x20:8,r0h
    8b98:	00 42       	00 42        .word	H'0,H'42
    8b9a:	0a 7b       	0a 7b        .word	H'a,H'7b
    8b9c:	6d 13       	6d 13             mov.w	@r1+,r3
    8b9e:	7d 08       	7d 08        .word	H'7d,H'8
    8ba0:	3c 66       	3c 66             mov.b	r4l,@0x66:8
    8ba2:	5b 43       	5b 43             jmp	@@67 (43)
    8ba4:	10 01       	10 01             shll	r1h
    8ba6:	10 13       	10 13             shll	r3
    8ba8:	7e 42       	7e 42        .word	H'7e,H'42
    8baa:	37 67       	37 67             mov.b	r7h,@0x67:8
    8bac:	4b 6d       	4b 6d             bmi	.+109 (8c1b)
    8bae:	7d 46       	7d 46        .word	H'7d,H'46
    8bb0:	7f 4f       	7f 4f        .word	H'7f,H'4f
    8bb2:	21 21       	21 21             mov.b	@0x21:8,r1h
    8bb4:	31 21       	31 21             mov.b	r1h,@0x21:8
    8bb6:	61 17       	61 17             bnot	r1h,r7h
    8bb8:	3f 5f       	3f 5f             mov.b	r7l,@0x5f:8
    8bba:	79 3c 73 3d 	79 3c 73 3d       sub.w	#0x733d,e4
    8bbe:	1d 7c       	1d 7c             cmp.w	r7,e4
    8bc0:	5b 42       	5b 42             jmp	@@66 (42)
    8bc2:	62 5b       	62 5b             bclr	r5h,r3l
    8bc4:	38 5e       	38 5e             mov.b	r0l,@0x5e:8
    8bc6:	5e 7e 1f 4f 	5e 7e 1f 4f       jsr	@0x7e1f4f:0
    8bca:	11 6d       	11 6d        .word	H'11,H'6d
    8bcc:	46 7a       	46 7a             bne	.+122 (8c48)
    8bce:	7a 7a       	7a 7a        .word	H'7a,H'7a
    8bd0:	5b 6b       	5b 6b             jmp	@@107 (6b)
    8bd2:	37 3c       	37 3c             mov.b	r7h,@0x3c:8
    8bd4:	49 66       	49 66             bvs	.+102 (8c3c)
    8bd6:	0e 20       	0e 20             addx	r2h,r0h
    8bd8:	02 5f       	02 5f             stmac	mach,er7
    8bda:	79 31 73 3d 	79 31 73 3d       sub.w	#0x733d,r1
    8bde:	1d 7c       	1d 7c             cmp.w	r7,e4
    8be0:	59 42       	59 42        .word	H'59,H'42
    8be2:	62 5b       	62 5b             bclr	r5h,r3l
    8be4:	38 51       	38 51             mov.b	r0l,@0x51:8
    8be6:	51 71       	51 71             divxu.b	r7h,r1
    8be8:	1f 4f       	1f 4f        .word	H'1f,H'4f
    8bea:	11 6d       	11 6d        .word	H'11,H'6d
    8bec:	39 70       	39 70             mov.b	r1l,@0x70:8
    8bee:	70 70       	70 70             bset	#0x7,r0h
    8bf0:	5b 6b       	5b 6b             jmp	@@107 (6b)
    8bf2:	37 3c       	37 3c             mov.b	r7h,@0x3c:8
    8bf4:	18 66       	18 66             sub.b	r6h,r6h
    8bf6:	0e 00       	0e 00             addx	r0h,r0h

00008bf8 <.L17>:
    8bf8:	8a 3a       	8a 3a             add.b	#0x3a,r2l
    8bfa:	8a 40       	8a 40             add.b	#0x40,r2l
    8bfc:	8a 46       	8a 46             add.b	#0x46,r2l
    8bfe:	8a 4c       	8a 4c             add.b	#0x4c,r2l
    8c00:	8a 52       	8a 52             add.b	#0x52,r2l
Disassembly of section .tors:
Disassembly of section .lcddata:
Disassembly of section .romdata:
Disassembly of section .motor:
Disassembly of section .eight:
