
kernel.coff-h8300:     file format coff-h8300

Disassembly of section .rom:
Disassembly of section .text:

00008000 <___text>:
    8000:	40 02       	40 02             bra	.+2 (8004)
    8002:	24 02       	24 02             mov.b	@0x2:8,r4h

00008004 <_main>:
    8004:	5e 00 88 70 	5e 00 88 70       jsr	@0x8870:0
    8008:	5e 00 89 d0 	5e 00 89 d0       jsr	@0x89d0:0
    800c:	6b 00 98 ae 	6b 00 98 ae       mov.w	@0x98ae:16,r0
    8010:	09 00       	09 00             add.w	r0,r0
    8012:	79 02 98 fe 	79 02 98 fe       mov.w	#0x98fe,r2
    8016:	09 02       	09 02             add.w	r0,r2
    8018:	0d 20       	0d 20             mov.w	r2,r0
    801a:	5e 00 89 1c 	5e 00 89 1c       jsr	@0x891c:0
    801e:	5e 00 88 9c 	5e 00 88 9c       jsr	@0x889c:0
    8022:	5e 00 88 b8 	5e 00 88 b8       jsr	@0x88b8:0
    8026:	79 00 89 3e 	79 00 89 3e       mov.w	#0x893e,r0
    802a:	5e 00 89 ea 	5e 00 89 ea       jsr	@0x89ea:0
    802e:	5e 00 8a f6 	5e 00 8a f6       jsr	@0x8af6:0
    8032:	5e 00 89 2c 	5e 00 89 2c       jsr	@0x892c:0
    8036:	6b 00 9e 00 	6b 00 9e 00       mov.w	@0x9e00:16,r0
    803a:	5e 00 83 7a 	5e 00 83 7a       jsr	@0x837a:0

0000803e <.L8>:
    803e:	19 00       	19 00             sub.w	r0,r0
    8040:	5e 00 8b 08 	5e 00 8b 08       jsr	@0x8b08:0
    8044:	40 f8       	40 f8             bra	.-8 (803e)

00008046 <_getNextTask>:
    8046:	1b 87       	1b 87             subs	#0x2,er7
    8048:	6d f4       	6d f4             mov.w	r4,@-e7
    804a:	6d f5       	6d f5             mov.w	r5,@-e7
    804c:	19 00       	19 00             sub.w	r0,r0
    804e:	6f f0 00 04 	6f f0 00 04       mov.w	r0,@(0x4:16,e7)
    8052:	19 55       	19 55             sub.w	r5,r5
    8054:	6b 80 96 54 	6b 80 96 54       mov.w	r0,@0x9654:16
    8058:	79 00 00 01 	79 00 00 01       mov.w	#0x1,r0
    805c:	6b 02 98 f0 	6b 02 98 f0       mov.w	@0x98f0:16,r2
    8060:	1d 20       	1d 20             cmp.w	r2,r0
    8062:	44 44       	44 44             bcc	.+68 (80a8)
    8064:	6b 02 98 f2 	6b 02 98 f2       mov.w	@0x98f2:16,r2
    8068:	0d 21       	0d 21             mov.w	r2,r1
    806a:	89 34       	89 34             add.b	#0x34,r1l
    806c:	91 00       	91 00             addx	#0x0,r1h
    806e:	79 04 00 1c 	79 04 00 1c       mov.w	#0x1c,r4
    8072:	09 24       	09 24             add.w	r2,r4

00008074 <.L14>:
    8074:	69 43       	69 43             mov.w	@r4,r3
    8076:	79 02 00 01 	79 02 00 01       mov.w	#0x1,r2
    807a:	1d 23       	1d 23             cmp.w	r2,r3
    807c:	46 0e       	46 0e             bne	.+14 (808c)
    807e:	69 12       	69 12             mov.w	@r1,r2
    8080:	1d 52       	1d 52             cmp.w	r5,r2
    8082:	43 08       	43 08             bls	.+8 (808c)
    8084:	0d 25       	0d 25             mov.w	r2,r5
    8086:	6b 80 96 54 	6b 80 96 54       mov.w	r0,@0x9654:16
    808a:	40 0a       	40 0a             bra	.+10 (8096)

0000808c <.L15>:
    808c:	69 12       	69 12             mov.w	@r1,r2
    808e:	6f f2 00 04 	6f f2 00 04       mov.w	r2,@(0x4:16,e7)
    8092:	6f f0 00 04 	6f f0 00 04       mov.w	r0,@(0x4:16,e7)

00008096 <.L13>:
    8096:	89 1c       	89 1c             add.b	#0x1c,r1l
    8098:	91 00       	91 00             addx	#0x0,r1h
    809a:	8c 1c       	8c 1c             add.b	#0x1c,r4l
    809c:	94 00       	94 00             addx	#0x0,r4h
    809e:	0b 00       	0b 00             adds	#0x1,er0
    80a0:	6b 02 98 f0 	6b 02 98 f0       mov.w	@0x98f0:16,r2
    80a4:	1d 20       	1d 20             cmp.w	r2,r0
    80a6:	45 cc       	45 cc             bcs	.-52 (8074)

000080a8 <.L12>:
    80a8:	6b 03 96 54 	6b 03 96 54       mov.w	@0x9654:16,r3
    80ac:	6b 00 98 f2 	6b 00 98 f2       mov.w	@0x98f2:16,r0
    80b0:	0d 32       	0d 32             mov.w	r3,r2
    80b2:	09 22       	09 22             add.w	r2,r2
    80b4:	09 22       	09 22             add.w	r2,r2
    80b6:	09 22       	09 22             add.w	r2,r2
    80b8:	19 32       	19 32             sub.w	r3,r2
    80ba:	09 22       	09 22             add.w	r2,r2
    80bc:	09 22       	09 22             add.w	r2,r2
    80be:	09 02       	09 02             add.w	r0,r2
    80c0:	6b 04 96 56 	6b 04 96 56       mov.w	@0x9656:16,r4
    80c4:	0d 41       	0d 41             mov.w	r4,r1
    80c6:	09 11       	09 11             add.w	r1,r1
    80c8:	09 11       	09 11             add.w	r1,r1
    80ca:	09 11       	09 11             add.w	r1,r1
    80cc:	19 41       	19 41             sub.w	r4,r1
    80ce:	09 11       	09 11             add.w	r1,r1
    80d0:	09 11       	09 11             add.w	r1,r1
    80d2:	09 01       	09 01             add.w	r0,r1
    80d4:	6f 23 00 18 	6f 23 00 18       mov.w	@(0x18:16,r2),r3
    80d8:	6f 12 00 18 	6f 12 00 18       mov.w	@(0x18:16,r1),r2
    80dc:	1d 23       	1d 23             cmp.w	r2,r3
    80de:	44 0e       	44 0e             bcc	.+14 (80ee)
    80e0:	69 13       	69 13             mov.w	@r1,r3
    80e2:	79 02 00 02 	79 02 00 02       mov.w	#0x2,r2
    80e6:	1d 23       	1d 23             cmp.w	r2,r3
    80e8:	46 04       	46 04             bne	.+4 (80ee)
    80ea:	6b 84 96 54 	6b 84 96 54       mov.w	r4,@0x9654:16

000080ee <.L19>:
    80ee:	6d 75       	6d 75             mov.w	@r7+,r5
    80f0:	6d 74       	6d 74             mov.w	@r7+,r4
    80f2:	0b 87       	0b 87             adds	#0x2,er7
    80f4:	54 70       	54 70             rts	

000080f6 <_moveToReady>:
    80f6:	6b 03 98 f2 	6b 03 98 f2       mov.w	@0x98f2:16,r3
    80fa:	0d 02       	0d 02             mov.w	r0,r2
    80fc:	09 22       	09 22             add.w	r2,r2
    80fe:	09 22       	09 22             add.w	r2,r2
    8100:	09 22       	09 22             add.w	r2,r2
    8102:	19 02       	19 02             sub.w	r0,r2
    8104:	09 22       	09 22             add.w	r2,r2
    8106:	09 22       	09 22             add.w	r2,r2
    8108:	09 32       	09 32             add.w	r3,r2
    810a:	79 03 00 01 	79 03 00 01       mov.w	#0x1,r3
    810e:	69 a3       	69 a3             mov.w	r3,@e2

00008110 <.ef>:
    8110:	54 70       	54 70             rts	

00008112 <_moveToExec>:
    8112:	6b 03 98 f2 	6b 03 98 f2       mov.w	@0x98f2:16,r3
    8116:	0d 02       	0d 02             mov.w	r0,r2
    8118:	09 22       	09 22             add.w	r2,r2
    811a:	09 22       	09 22             add.w	r2,r2
    811c:	09 22       	09 22             add.w	r2,r2
    811e:	19 02       	19 02             sub.w	r0,r2
    8120:	09 22       	09 22             add.w	r2,r2
    8122:	09 22       	09 22             add.w	r2,r2
    8124:	09 32       	09 32             add.w	r3,r2
    8126:	79 03 00 02 	79 03 00 02       mov.w	#0x2,r3
    812a:	69 a3       	69 a3             mov.w	r3,@e2
    812c:	6b 80 96 56 	6b 80 96 56       mov.w	r0,@0x9656:16

00008130 <.ef>:
    8130:	54 70       	54 70             rts	

00008132 <_moveToWaiting>:
    8132:	6b 02 98 ec 	6b 02 98 ec       mov.w	@0x98ec:16,r2
    8136:	0d 01       	0d 01             mov.w	r0,r1
    8138:	09 11       	09 11             add.w	r1,r1
    813a:	09 11       	09 11             add.w	r1,r1
    813c:	09 11       	09 11             add.w	r1,r1
    813e:	0d 13       	0d 13             mov.w	r1,r3
    8140:	09 03       	09 03             add.w	r0,r3
    8142:	09 33       	09 33             add.w	r3,r3
    8144:	09 23       	09 23             add.w	r2,r3
    8146:	69 32       	69 32             mov.w	@r3,r2
    8148:	46 14       	46 14             bne	.+20 (815e)
    814a:	6b 02 98 f2 	6b 02 98 f2       mov.w	@0x98f2:16,r2
    814e:	0d 13       	0d 13             mov.w	r1,r3
    8150:	19 03       	19 03             sub.w	r0,r3
    8152:	09 33       	09 33             add.w	r3,r3
    8154:	09 33       	09 33             add.w	r3,r3
    8156:	09 23       	09 23             add.w	r2,r3
    8158:	79 02 00 03 	79 02 00 03       mov.w	#0x3,r2
    815c:	40 10       	40 10             bra	.+16 (816e)

0000815e <.L23>:
    815e:	6b 02 98 f2 	6b 02 98 f2       mov.w	@0x98f2:16,r2
    8162:	0d 13       	0d 13             mov.w	r1,r3
    8164:	19 03       	19 03             sub.w	r0,r3
    8166:	09 33       	09 33             add.w	r3,r3
    8168:	09 33       	09 33             add.w	r3,r3
    816a:	09 23       	09 23             add.w	r2,r3
    816c:	19 22       	19 22             sub.w	r2,r2

0000816e <.L25>:
    816e:	69 b2       	69 b2             mov.w	r2,@e3

00008170 <.ef>:
    8170:	54 70       	54 70             rts	

00008172 <_updateTCBList>:
    8172:	1b 87       	1b 87             subs	#0x2,er7
    8174:	1b 87       	1b 87             subs	#0x2,er7
    8176:	6d f4       	6d f4             mov.w	r4,@-e7
    8178:	6d f5       	6d f5             mov.w	r5,@-e7
    817a:	6d f6       	6d f6             mov.w	r6,@-e7
    817c:	79 06 00 01 	79 06 00 01       mov.w	#0x1,r6
    8180:	6b 02 98 ea 	6b 02 98 ea       mov.w	@0x98ea:16,r2
    8184:	1d 26       	1d 26             cmp.w	r2,r6
    8186:	45 04       	45 04             bcs	.+4 (818c)
    8188:	5a 00 82 50 	5a 00 82 50       jmp	@0x8250:0

0000818c <.Lh8BR229>:
    818c:	79 05 00 1c 	79 05 00 1c       mov.w	#0x1c,r5
    8190:	79 04 00 12 	79 04 00 12       mov.w	#0x12,r4
    8194:	6f f4 00 08 	6f f4 00 08       mov.w	r4,@(0x8:16,e7)

00008198 <.L30>:
    8198:	6b 00 98 f2 	6b 00 98 f2       mov.w	@0x98f2:16,r0
    819c:	6f f0 00 06 	6f f0 00 06       mov.w	r0,@(0x6:16,e7)
    81a0:	0d 51       	0d 51             mov.w	r5,r1
    81a2:	09 01       	09 01             add.w	r0,r1
    81a4:	69 13       	69 13             mov.w	@r1,r3
    81a6:	79 02 00 02 	79 02 00 02       mov.w	#0x2,r2
    81aa:	1d 23       	1d 23             cmp.w	r2,r3
    81ac:	42 0a       	42 0a             bhi	.+10 (81b8)
    81ae:	79 02 00 01 	79 02 00 01       mov.w	#0x1,r2
    81b2:	1d 23       	1d 23             cmp.w	r2,r3
    81b4:	44 0c       	44 0c             bcc	.+12 (81c2)
    81b6:	40 1c       	40 1c             bra	.+28 (81d4)

000081b8 <.L42>:
    81b8:	79 02 00 03 	79 02 00 03       mov.w	#0x3,r2
    81bc:	1d 23       	1d 23             cmp.w	r2,r3
    81be:	47 30       	47 30             beq	.+48 (81f0)
    81c0:	40 62       	40 62             bra	.+98 (8224)

000081c2 <.L33>:
    81c2:	6f 12 00 02 	6f 12 00 02       mov.w	@(0x2:16,r1),r2
    81c6:	46 4a       	46 4a             bne	.+74 (8212)
    81c8:	6b 02 98 ec 	6b 02 98 ec       mov.w	@0x98ec:16,r2
    81cc:	6f 73 00 08 	6f 73 00 08       mov.w	@(0x8:16,r7),r3
    81d0:	09 23       	09 23             add.w	r2,r3
    81d2:	40 30       	40 30             bra	.+48 (8204)

000081d4 <.L35>:
    81d4:	0d 52       	0d 52             mov.w	r5,r2
    81d6:	6f 74 00 06 	6f 74 00 06       mov.w	@(0x6:16,r7),r4
    81da:	09 42       	09 42             add.w	r4,r2
    81dc:	6f 22 00 16 	6f 22 00 16       mov.w	@(0x16:16,r2),r2
    81e0:	46 42       	46 42             bne	.+66 (8224)
    81e2:	0d 60       	0d 60             mov.w	r6,r0
    81e4:	5e 00 82 f0 	5e 00 82 f0       jsr	@0x82f0:0
    81e8:	0d 60       	0d 60             mov.w	r6,r0
    81ea:	5e 00 80 f6 	5e 00 80 f6       jsr	@0x80f6:0
    81ee:	40 30       	40 30             bra	.+48 (8220)

000081f0 <.L37>:
    81f0:	6b 02 98 ec 	6b 02 98 ec       mov.w	@0x98ec:16,r2
    81f4:	6f 73 00 08 	6f 73 00 08       mov.w	@(0x8:16,r7),r3
    81f8:	09 23       	09 23             add.w	r2,r3
    81fa:	69 32       	69 32             mov.w	@r3,r2
    81fc:	47 26       	47 26             beq	.+38 (8224)
    81fe:	6f 12 00 02 	6f 12 00 02       mov.w	@(0x2:16,r1),r2
    8202:	46 0e       	46 0e             bne	.+14 (8212)

00008204 <.L45>:
    8204:	6f 32 00 0a 	6f 32 00 0a       mov.w	@(0xa:16,r3),r2
    8208:	79 00 03 e9 	79 00 03 e9       mov.w	#0x3e9,r0
    820c:	5d 20       	5d 20             jsr	@r2
    820e:	6b 00 98 f2 	6b 00 98 f2       mov.w	@0x98f2:16,r0

00008212 <.L39>:
    8212:	0d 53       	0d 53             mov.w	r5,r3
    8214:	09 03       	09 03             add.w	r0,r3
    8216:	6f 32 00 02 	6f 32 00 02       mov.w	@(0x2:16,r3),r2
    821a:	1b 02       	1b 02             subs	#0x1,er2
    821c:	6f b2 00 02 	6f b2 00 02       mov.w	r2,@(0x2:16,e3)

00008220 <.L44>:
    8220:	6b 00 98 f2 	6b 00 98 f2       mov.w	@0x98f2:16,r0

00008224 <.L31>:
    8224:	0d 52       	0d 52             mov.w	r5,r2
    8226:	09 02       	09 02             add.w	r0,r2
    8228:	6f 23 00 16 	6f 23 00 16       mov.w	@(0x16:16,r2),r3
    822c:	1b 03       	1b 03             subs	#0x1,er3
    822e:	6f a3 00 16 	6f a3 00 16       mov.w	r3,@(0x16:16,e2)
    8232:	8d 1c       	8d 1c             add.b	#0x1c,r5l
    8234:	95 00       	95 00             addx	#0x0,r5h
    8236:	6f 74 00 08 	6f 74 00 08       mov.w	@(0x8:16,r7),r4
    823a:	8c 12       	8c 12             add.b	#0x12,r4l
    823c:	94 00       	94 00             addx	#0x0,r4h
    823e:	6f f4 00 08 	6f f4 00 08       mov.w	r4,@(0x8:16,e7)
    8242:	0b 06       	0b 06             adds	#0x1,er6
    8244:	6b 02 98 ea 	6b 02 98 ea       mov.w	@0x98ea:16,r2
    8248:	1d 26       	1d 26             cmp.w	r2,r6
    824a:	44 04       	44 04             bcc	.+4 (8250)
    824c:	5a 00 81 98 	5a 00 81 98       jmp	@0x8198:0

00008250 <.L28>:
    8250:	6b 02 96 58 	6b 02 96 58       mov.w	@0x9658:16,r2
    8254:	0b 02       	0b 02             adds	#0x1,er2
    8256:	6b 82 96 58 	6b 82 96 58       mov.w	r2,@0x9658:16

0000825a <.ef>:
    825a:	6d 76       	6d 76             mov.w	@r7+,r6
    825c:	6d 75       	6d 75             mov.w	@r7+,r5
    825e:	6d 74       	6d 74             mov.w	@r7+,r4
    8260:	0b 87       	0b 87             adds	#0x2,er7
    8262:	0b 87       	0b 87             adds	#0x2,er7
    8264:	54 70       	54 70             rts	

00008266 <_dispatch>:
    8266:	19 33       	19 33             sub.w	r3,r3
    8268:	6b 01 96 54 	6b 01 96 54       mov.w	@0x9654:16,r1
    826c:	6b 00 96 56 	6b 00 96 56       mov.w	@0x9656:16,r0
    8270:	1d 01       	1d 01             cmp.w	r0,r1
    8272:	47 78       	47 78             beq	.+120 (82ec)

00008274 <.Lh8BR387>:
    8274:	6b 03 98 f2 	6b 03 98 f2       mov.w	@0x98f2:16,r3
    8278:	0d 02       	0d 02             mov.w	r0,r2
    827a:	09 22       	09 22             add.w	r2,r2
    827c:	09 22       	09 22             add.w	r2,r2
    827e:	09 22       	09 22             add.w	r2,r2
    8280:	19 02       	19 02             sub.w	r0,r2
    8282:	09 22       	09 22             add.w	r2,r2
    8284:	09 22       	09 22             add.w	r2,r2
    8286:	09 32       	09 32             add.w	r3,r2
    8288:	69 23       	69 23             mov.w	@r2,r3
    828a:	47 10       	47 10             beq	.+16 (829c)
    828c:	79 02 00 03 	79 02 00 03       mov.w	#0x3,r2
    8290:	1d 23       	1d 23             cmp.w	r2,r3
    8292:	47 08       	47 08             beq	.+8 (829c)
    8294:	5e 00 80 f6 	5e 00 80 f6       jsr	@0x80f6:0
    8298:	6b 01 96 54 	6b 01 96 54       mov.w	@0x9654:16,r1

0000829c <.L51>:
    829c:	0d 10       	0d 10             mov.w	r1,r0
    829e:	09 00       	09 00             add.w	r0,r0
    82a0:	09 00       	09 00             add.w	r0,r0
    82a2:	09 00       	09 00             add.w	r0,r0
    82a4:	0d 03       	0d 03             mov.w	r0,r3
    82a6:	09 13       	09 13             add.w	r1,r3
    82a8:	09 33       	09 33             add.w	r3,r3
    82aa:	6b 02 98 ec 	6b 02 98 ec       mov.w	@0x98ec:16,r2
    82ae:	09 32       	09 32             add.w	r3,r2
    82b0:	6b 82 98 d8 	6b 82 98 d8       mov.w	r2,@0x98d8:16
    82b4:	19 10       	19 10             sub.w	r1,r0
    82b6:	09 00       	09 00             add.w	r0,r0
    82b8:	09 00       	09 00             add.w	r0,r0
    82ba:	6b 02 98 f2 	6b 02 98 f2       mov.w	@0x98f2:16,r2
    82be:	09 02       	09 02             add.w	r0,r2
    82c0:	6b 82 98 da 	6b 82 98 da       mov.w	r2,@0x98da:16
    82c4:	0d 10       	0d 10             mov.w	r1,r0
    82c6:	5e 00 81 12 	5e 00 81 12       jsr	@0x8112:0
    82ca:	6b 02 98 da 	6b 02 98 da       mov.w	@0x98da:16,r2
    82ce:	6b 03 98 d8 	6b 03 98 d8       mov.w	@0x98d8:16,r3
    82d2:	6f 20 00 04 	6f 20 00 04       mov.w	@(0x4:16,r2),r0
    82d6:	6f 32 00 06 	6f 32 00 06       mov.w	@(0x6:16,r3),r2
    82da:	79 03 00 01 	79 03 00 01       mov.w	#0x1,r3
    82de:	1d 20       	1d 20             cmp.w	r2,r0
    82e0:	46 0a       	46 0a             bne	.+10 (82ec)
    82e2:	6b 02 96 54 	6b 02 96 54       mov.w	@0x9654:16,r2
    82e6:	47 04       	47 04             beq	.+4 (82ec)
    82e8:	79 03 00 03 	79 03 00 03       mov.w	#0x3,r3

000082ec <.L48>:
    82ec:	0d 30       	0d 30             mov.w	r3,r0

000082ee <.ef>:
    82ee:	54 70       	54 70             rts	

000082f0 <_initTask>:
    82f0:	6d f4       	6d f4             mov.w	r4,@-e7
    82f2:	0d 02       	0d 02             mov.w	r0,r2
    82f4:	09 22       	09 22             add.w	r2,r2
    82f6:	09 22       	09 22             add.w	r2,r2
    82f8:	09 22       	09 22             add.w	r2,r2
    82fa:	0d 23       	0d 23             mov.w	r2,r3
    82fc:	09 03       	09 03             add.w	r0,r3
    82fe:	09 33       	09 33             add.w	r3,r3
    8300:	6b 01 98 ec 	6b 01 98 ec       mov.w	@0x98ec:16,r1
    8304:	09 31       	09 31             add.w	r3,r1
    8306:	19 02       	19 02             sub.w	r0,r2
    8308:	09 22       	09 22             add.w	r2,r2
    830a:	09 22       	09 22             add.w	r2,r2
    830c:	6b 03 98 f2 	6b 03 98 f2       mov.w	@0x98f2:16,r3
    8310:	09 23       	09 23             add.w	r2,r3
    8312:	0d 00       	0d 00             mov.w	r0,r0
    8314:	47 5a       	47 5a             beq	.+90 (8370)
    8316:	69 12       	69 12             mov.w	@r1,r2
    8318:	46 06       	46 06             bne	.+6 (8320)
    831a:	79 02 00 03 	79 02 00 03       mov.w	#0x3,r2
    831e:	40 02       	40 02             bra	.+2 (8322)

00008320 <.L56>:
    8320:	19 22       	19 22             sub.w	r2,r2

00008322 <.L58>:
    8322:	69 b2       	69 b2             mov.w	r2,@e3
    8324:	6f 12 00 06 	6f 12 00 06       mov.w	@(0x6:16,r1),r2
    8328:	6f b2 00 04 	6f b2 00 04       mov.w	r2,@(0x4:16,e3)
    832c:	6f 12 00 08 	6f 12 00 08       mov.w	@(0x8:16,r1),r2
    8330:	6f b2 00 08 	6f b2 00 08       mov.w	r2,@(0x8:16,e3)
    8334:	19 22       	19 22             sub.w	r2,r2
    8336:	6f b2 00 0a 	6f b2 00 0a       mov.w	r2,@(0xa:16,e3)
    833a:	6f b2 00 0c 	6f b2 00 0c       mov.w	r2,@(0xc:16,e3)
    833e:	6f b2 00 0e 	6f b2 00 0e       mov.w	r2,@(0xe:16,e3)
    8342:	6f b2 00 10 	6f b2 00 10       mov.w	r2,@(0x10:16,e3)
    8346:	6f b2 00 12 	6f b2 00 12       mov.w	r2,@(0x12:16,e3)
    834a:	6f b2 00 14 	6f b2 00 14       mov.w	r2,@(0x14:16,e3)
    834e:	6f 12 00 0c 	6f 12 00 0c       mov.w	@(0xc:16,r1),r2
    8352:	6f b2 00 06 	6f b2 00 06       mov.w	r2,@(0x6:16,e3)
    8356:	6f 12 00 02 	6f 12 00 02       mov.w	@(0x2:16,r1),r2
    835a:	6f 14 00 04 	6f 14 00 04       mov.w	@(0x4:16,r1),r4
    835e:	19 24       	19 24             sub.w	r2,r4
    8360:	0d 42       	0d 42             mov.w	r4,r2
    8362:	1b 02       	1b 02             subs	#0x1,er2
    8364:	6f b2 00 02 	6f b2 00 02       mov.w	r2,@(0x2:16,e3)
    8368:	69 12       	69 12             mov.w	@r1,r2
    836a:	1b 02       	1b 02             subs	#0x1,er2
    836c:	6f b2 00 16 	6f b2 00 16       mov.w	r2,@(0x16:16,e3)

00008370 <.L54>:
    8370:	6d 74       	6d 74             mov.w	@r7+,r4
    8372:	54 70       	54 70             rts	

00008374 <_getTicks>:
    8374:	6b 00 96 58 	6b 00 96 58       mov.w	@0x9658:16,r0

00008378 <.ef>:
    8378:	54 70       	54 70             rts	

0000837a <_os_changeMode>:
    837a:	6d f4       	6d f4             mov.w	r4,@-e7
    837c:	0d 04       	0d 04             mov.w	r0,r4
    837e:	5e 00 88 70 	5e 00 88 70       jsr	@0x8870:0
    8382:	5e 00 89 d0 	5e 00 89 d0       jsr	@0x89d0:0
    8386:	6b 84 98 e4 	6b 84 98 e4       mov.w	r4,@0x98e4:16
    838a:	09 44       	09 44             add.w	r4,r4
    838c:	6f 42 98 aa 	6f 42 98 aa       mov.w	@(0x98aa:16,r4),r2
    8390:	6b 82 98 f0 	6b 82 98 f0       mov.w	r2,@0x98f0:16
    8394:	6b 82 98 ea 	6b 82 98 ea       mov.w	r2,@0x98ea:16
    8398:	6f 40 98 a6 	6f 40 98 a6       mov.w	@(0x98a6:16,r4),r0
    839c:	6b 80 98 ec 	6b 80 98 ec       mov.w	r0,@0x98ec:16
    83a0:	6f 43 98 a8 	6f 43 98 a8       mov.w	@(0x98a8:16,r4),r3
    83a4:	6b 83 98 f2 	6b 83 98 f2       mov.w	r3,@0x98f2:16
    83a8:	6f 42 98 b0 	6f 42 98 b0       mov.w	@(0x98b0:16,r4),r2
    83ac:	6b 82 98 e8 	6b 82 98 e8       mov.w	r2,@0x98e8:16
    83b0:	6f 42 98 b2 	6f 42 98 b2       mov.w	@(0x98b2:16,r4),r2
    83b4:	6b 82 98 ee 	6b 82 98 ee       mov.w	r2,@0x98ee:16
    83b8:	6f 42 98 b4 	6f 42 98 b4       mov.w	@(0x98b4:16,r4),r2
    83bc:	6b 82 98 e2 	6b 82 98 e2       mov.w	r2,@0x98e2:16
    83c0:	6f 42 98 b6 	6f 42 98 b6       mov.w	@(0x98b6:16,r4),r2
    83c4:	6b 82 98 e6 	6b 82 98 e6       mov.w	r2,@0x98e6:16
    83c8:	6f 42 98 ac 	6f 42 98 ac       mov.w	@(0x98ac:16,r4),r2
    83cc:	6b 82 98 e0 	6b 82 98 e0       mov.w	r2,@0x98e0:16
    83d0:	6b 80 98 d8 	6b 80 98 d8       mov.w	r0,@0x98d8:16
    83d4:	6b 83 98 da 	6b 83 98 da       mov.w	r3,@0x98da:16
    83d8:	79 00 89 3e 	79 00 89 3e       mov.w	#0x893e,r0
    83dc:	5e 00 89 ea 	5e 00 89 ea       jsr	@0x89ea:0
    83e0:	5e 00 88 74 	5e 00 88 74       jsr	@0x8874:0
    83e4:	5e 00 89 c4 	5e 00 89 c4       jsr	@0x89c4:0

000083e8 <.ef>:
    83e8:	6d 74       	6d 74             mov.w	@r7+,r4
    83ea:	54 70       	54 70             rts	

000083ec <_self>:
    83ec:	6b 00 96 56 	6b 00 96 56       mov.w	@0x9656:16,r0

000083f0 <.ef>:
    83f0:	54 70       	54 70             rts	

000083f2 <_errorH>:
    83f2:	1b 87       	1b 87             subs	#0x2,er7
    83f4:	6d f4       	6d f4             mov.w	r4,@-e7
    83f6:	0d 04       	0d 04             mov.w	r0,r4
    83f8:	5e 00 89 d0 	5e 00 89 d0       jsr	@0x89d0:0
    83fc:	0d 40       	0d 40             mov.w	r4,r0
    83fe:	5e 00 92 50 	5e 00 92 50       jsr	@0x9250:0
    8402:	0d 74       	0d 74             mov.w	r7,r4
    8404:	0b 84       	0b 84             adds	#0x2,er4

00008406 <.L7>:
    8406:	0d 42       	0d 42             mov.w	r4,r2
    8408:	79 01 30 00 	79 01 30 00       mov.w	#0x3000,r1
    840c:	79 00 1f b6 	79 00 1f b6       mov.w	#0x1fb6,r0
    8410:	5e 00 92 bc 	5e 00 92 bc       jsr	@0x92bc:0
    8414:	6f 72 00 02 	6f 72 00 02       mov.w	@(0x2:16,r7),r2
    8418:	73 1a       	73 1a             btst	#0x1,r2l
    841a:	47 ea       	47 ea             beq	.-22 (8406)

0000841c <.L13>:
    841c:	0d 42       	0d 42             mov.w	r4,r2
    841e:	79 01 30 00 	79 01 30 00       mov.w	#0x3000,r1
    8422:	79 00 1f b6 	79 00 1f b6       mov.w	#0x1fb6,r0
    8426:	5e 00 92 bc 	5e 00 92 bc       jsr	@0x92bc:0
    842a:	6f 72 00 02 	6f 72 00 02       mov.w	@(0x2:16,r7),r2
    842e:	73 1a       	73 1a             btst	#0x1,r2l
    8430:	46 ea       	46 ea             bne	.-22 (841c)
    8432:	55 b8       	55 b8             bsr	.-72 (83ec)
    8434:	5e 00 92 50 	5e 00 92 50       jsr	@0x9250:0

00008438 <.L19>:
    8438:	0d 42       	0d 42             mov.w	r4,r2
    843a:	79 01 30 00 	79 01 30 00       mov.w	#0x3000,r1
    843e:	79 00 1f b6 	79 00 1f b6       mov.w	#0x1fb6,r0
    8442:	5e 00 92 bc 	5e 00 92 bc       jsr	@0x92bc:0
    8446:	6f 72 00 02 	6f 72 00 02       mov.w	@(0x2:16,r7),r2
    844a:	73 1a       	73 1a             btst	#0x1,r2l
    844c:	47 ea       	47 ea             beq	.-22 (8438)

0000844e <.L25>:
    844e:	0d 42       	0d 42             mov.w	r4,r2
    8450:	79 01 30 00 	79 01 30 00       mov.w	#0x3000,r1
    8454:	79 00 1f b6 	79 00 1f b6       mov.w	#0x1fb6,r0
    8458:	5e 00 92 bc 	5e 00 92 bc       jsr	@0x92bc:0
    845c:	6f 72 00 02 	6f 72 00 02       mov.w	@(0x2:16,r7),r2
    8460:	73 1a       	73 1a             btst	#0x1,r2l
    8462:	46 ea       	46 ea             bne	.-22 (844e)
    8464:	5e 00 83 74 	5e 00 83 74       jsr	@0x8374:0
    8468:	5e 00 92 50 	5e 00 92 50       jsr	@0x9250:0

0000846c <.L31>:
    846c:	0d 42       	0d 42             mov.w	r4,r2
    846e:	79 01 30 00 	79 01 30 00       mov.w	#0x3000,r1
    8472:	79 00 1f b6 	79 00 1f b6       mov.w	#0x1fb6,r0
    8476:	5e 00 92 bc 	5e 00 92 bc       jsr	@0x92bc:0
    847a:	6f 72 00 02 	6f 72 00 02       mov.w	@(0x2:16,r7),r2
    847e:	73 1a       	73 1a             btst	#0x1,r2l
    8480:	47 ea       	47 ea             beq	.-22 (846c)

00008482 <.L37>:
    8482:	0d 42       	0d 42             mov.w	r4,r2
    8484:	79 01 30 00 	79 01 30 00       mov.w	#0x3000,r1
    8488:	79 00 1f b6 	79 00 1f b6       mov.w	#0x1fb6,r0
    848c:	5e 00 92 bc 	5e 00 92 bc       jsr	@0x92bc:0
    8490:	6f 72 00 02 	6f 72 00 02       mov.w	@(0x2:16,r7),r2
    8494:	73 1a       	73 1a             btst	#0x1,r2l
    8496:	46 ea       	46 ea             bne	.-22 (8482)
    8498:	5e 00 03 ae 	5e 00 03 ae       jsr	@0x3ae:0

0000849c <.ef>:
    849c:	6d 74       	6d 74             mov.w	@r7+,r4
    849e:	0b 87       	0b 87             adds	#0x2,er7
    84a0:	54 70       	54 70             rts	

000084a2 <_invokeISR>:
    84a2:	6d f4       	6d f4             mov.w	r4,@-e7
    84a4:	6b 03 98 ee 	6b 03 98 ee       mov.w	@0x98ee:16,r3
    84a8:	0d 02       	0d 02             mov.w	r0,r2
    84aa:	09 22       	09 22             add.w	r2,r2
    84ac:	09 22       	09 22             add.w	r2,r2
    84ae:	09 22       	09 22             add.w	r2,r2
    84b0:	09 32       	09 32             add.w	r3,r2
    84b2:	6f 22 00 04 	6f 22 00 04       mov.w	@(0x4:16,r2),r2
    84b6:	69 24       	69 24             mov.w	@r2,r4
    84b8:	6b 01 96 56 	6b 01 96 56       mov.w	@0x9656:16,r1
    84bc:	6b 02 98 e8 	6b 02 98 e8       mov.w	@0x98e8:16,r2
    84c0:	1d 20       	1d 20             cmp.w	r2,r0
    84c2:	43 1c       	43 1c             bls	.+28 (84e0)
    84c4:	6b 02 98 ec 	6b 02 98 ec       mov.w	@0x98ec:16,r2
    84c8:	0d 13       	0d 13             mov.w	r1,r3
    84ca:	09 33       	09 33             add.w	r3,r3
    84cc:	09 33       	09 33             add.w	r3,r3
    84ce:	09 33       	09 33             add.w	r3,r3
    84d0:	09 13       	09 13             add.w	r1,r3
    84d2:	09 33       	09 33             add.w	r3,r3
    84d4:	09 23       	09 23             add.w	r2,r3
    84d6:	6f 32 00 0a 	6f 32 00 0a       mov.w	@(0xa:16,r3),r2
    84da:	79 00 03 ec 	79 00 03 ec       mov.w	#0x3ec,r0
    84de:	5d 20       	5d 20             jsr	@r2

000084e0 <.L2>:
    84e0:	0d 40       	0d 40             mov.w	r4,r0
    84e2:	5e 00 80 f6 	5e 00 80 f6       jsr	@0x80f6:0
    84e6:	5e 00 8a 58 	5e 00 8a 58       jsr	@0x8a58:0

000084ea <.ef>:
    84ea:	6d 74       	6d 74             mov.w	@r7+,r4
    84ec:	54 70       	54 70             rts	

000084ee <_insertFirst>:
    84ee:	69 13       	69 13             mov.w	@r1,r3
    84f0:	46 08       	46 08             bne	.+8 (84fa)
    84f2:	6f 83 00 02 	6f 83 00 02       mov.w	r3,@(0x2:16,e0)
    84f6:	69 a0       	69 a0             mov.w	r0,@e2
    84f8:	40 04       	40 04             bra	.+4 (84fe)

000084fa <.L2>:
    84fa:	6f 83 00 02 	6f 83 00 02       mov.w	r3,@(0x2:16,e0)

000084fe <.L3>:
    84fe:	69 90       	69 90             mov.w	r0,@e1

00008500 <.ef>:
    8500:	54 70       	54 70             rts	

00008502 <_insertLast>:
    8502:	0d 23       	0d 23             mov.w	r2,r3
    8504:	19 22       	19 22             sub.w	r2,r2
    8506:	6f 82 00 02 	6f 82 00 02       mov.w	r2,@(0x2:16,e0)
    850a:	69 12       	69 12             mov.w	@r1,r2
    850c:	46 04       	46 04             bne	.+4 (8512)
    850e:	69 90       	69 90             mov.w	r0,@e1
    8510:	40 06       	40 06             bra	.+6 (8518)

00008512 <.L5>:
    8512:	69 32       	69 32             mov.w	@r3,r2
    8514:	6f a0 00 02 	6f a0 00 02       mov.w	r0,@(0x2:16,e2)

00008518 <.L7>:
    8518:	69 b0       	69 b0             mov.w	r0,@e3

0000851a <.ef>:
    851a:	54 70       	54 70             rts	

0000851c <_getFirst>:
    851c:	69 03       	69 03             mov.w	@r0,r3
    851e:	46 04       	46 04             bne	.+4 (8524)
    8520:	19 00       	19 00             sub.w	r0,r0
    8522:	40 18       	40 18             bra	.+24 (853c)

00008524 <.L9>:
    8524:	6f 32 00 02 	6f 32 00 02       mov.w	@(0x2:16,r3),r2
    8528:	69 82       	69 82             mov.w	r2,@e0
    852a:	19 22       	19 22             sub.w	r2,r2
    852c:	6f b2 00 02 	6f b2 00 02       mov.w	r2,@(0x2:16,e3)
    8530:	69 00       	69 00             mov.w	@r0,r0
    8532:	6f 02 00 02 	6f 02 00 02       mov.w	@(0x2:16,r0),r2
    8536:	46 02       	46 02             bne	.+2 (853a)
    8538:	69 90       	69 90             mov.w	r0,@e1

0000853a <.L10>:
    853a:	0d 30       	0d 30             mov.w	r3,r0

0000853c <.L11>:
    853c:	54 70       	54 70             rts	

0000853e <_getLast>:
    853e:	6d f4       	6d f4             mov.w	r4,@-e7
    8540:	0d 04       	0d 04             mov.w	r0,r4
    8542:	0d 12       	0d 12             mov.w	r1,r2
    8544:	69 23       	69 23             mov.w	@r2,r3
    8546:	69 30       	69 30             mov.w	@r3,r0
    8548:	0d 41       	0d 41             mov.w	r4,r1
    854a:	55 04       	55 04             bsr	.+4 (8550)

0000854c <.ef>:
    854c:	6d 74       	6d 74             mov.w	@r7+,r4
    854e:	54 70       	54 70             rts	

00008550 <_getNode>:
    8550:	6d f4       	6d f4             mov.w	r4,@-e7
    8552:	6d f5       	6d f5             mov.w	r5,@-e7
    8554:	6d f6       	6d f6             mov.w	r6,@-e7
    8556:	0d 05       	0d 05             mov.w	r0,r5
    8558:	0d 13       	0d 13             mov.w	r1,r3
    855a:	0d 26       	0d 26             mov.w	r2,r6
    855c:	19 11       	19 11             sub.w	r1,r1
    855e:	19 44       	19 44             sub.w	r4,r4
    8560:	69 30       	69 30             mov.w	@r3,r0
    8562:	46 04       	46 04             bne	.+4 (8568)
    8564:	19 00       	19 00             sub.w	r0,r0
    8566:	40 44       	40 44             bra	.+68 (85ac)

00008568 <.L14>:
    8568:	69 02       	69 02             mov.w	@r0,r2
    856a:	1d 52       	1d 52             cmp.w	r5,r2
    856c:	46 0a       	46 0a             bne	.+10 (8578)
    856e:	0d 61       	0d 61             mov.w	r6,r1
    8570:	0d 30       	0d 30             mov.w	r3,r0
    8572:	55 a8       	55 a8             bsr	.-88 (851c)
    8574:	0d 01       	0d 01             mov.w	r0,r1
    8576:	40 34       	40 34             bra	.+52 (85ac)

00008578 <.L15>:
    8578:	6f 03 00 02 	6f 03 00 02       mov.w	@(0x2:16,r0),r3
    857c:	47 14       	47 14             beq	.+20 (8592)

0000857e <.L19>:
    857e:	69 32       	69 32             mov.w	@r3,r2
    8580:	1d 52       	1d 52             cmp.w	r5,r2
    8582:	46 02       	46 02             bne	.+2 (8586)
    8584:	0d 01       	0d 01             mov.w	r0,r1

00008586 <.L20>:
    8586:	0d 04       	0d 04             mov.w	r0,r4
    8588:	0d 30       	0d 30             mov.w	r3,r0
    858a:	6f 02 00 02 	6f 02 00 02       mov.w	@(0x2:16,r0),r2
    858e:	0d 23       	0d 23             mov.w	r2,r3
    8590:	46 ec       	46 ec             bne	.-20 (857e)

00008592 <.L18>:
    8592:	6f 10 00 02 	6f 10 00 02       mov.w	@(0x2:16,r1),r0
    8596:	6f 02 00 02 	6f 02 00 02       mov.w	@(0x2:16,r0),r2
    859a:	6f 92 00 02 	6f 92 00 02       mov.w	r2,@(0x2:16,e1)
    859e:	6f 02 00 02 	6f 02 00 02       mov.w	@(0x2:16,r0),r2
    85a2:	46 02       	46 02             bne	.+2 (85a6)
    85a4:	69 e4       	69 e4             mov.w	r4,@e6

000085a6 <.L22>:
    85a6:	19 22       	19 22             sub.w	r2,r2
    85a8:	6f 82 00 02 	6f 82 00 02       mov.w	r2,@(0x2:16,e0)

000085ac <.L23>:
    85ac:	6d 76       	6d 76             mov.w	@r7+,r6
    85ae:	6d 75       	6d 75             mov.w	@r7+,r5
    85b0:	6d 74       	6d 74             mov.w	@r7+,r4
    85b2:	54 70       	54 70             rts	

000085b4 <_releaseSemaphore>:
    85b4:	79 03 00 08 	79 03 00 08       mov.w	#0x8,r3
    85b8:	19 37       	19 37             sub.w	r3,r7
    85ba:	6d f4       	6d f4             mov.w	r4,@-e7
    85bc:	6d f5       	6d f5             mov.w	r5,@-e7
    85be:	6d f6       	6d f6             mov.w	r6,@-e7
    85c0:	6f f0 00 0c 	6f f0 00 0c       mov.w	r0,@(0xc:16,e7)
    85c4:	19 55       	19 55             sub.w	r5,r5
    85c6:	6f f5 00 0a 	6f f5 00 0a       mov.w	r5,@(0xa:16,e7)
    85ca:	19 66       	19 66             sub.w	r6,r6
    85cc:	6b 02 96 56 	6b 02 96 56       mov.w	@0x9656:16,r2
    85d0:	6b 00 98 ec 	6b 00 98 ec       mov.w	@0x98ec:16,r0
    85d4:	0d 23       	0d 23             mov.w	r2,r3
    85d6:	09 33       	09 33             add.w	r3,r3
    85d8:	09 33       	09 33             add.w	r3,r3
    85da:	09 33       	09 33             add.w	r3,r3
    85dc:	09 23       	09 23             add.w	r2,r3
    85de:	09 33       	09 33             add.w	r3,r3
    85e0:	09 03       	09 03             add.w	r0,r3
    85e2:	6f 32 00 10 	6f 32 00 10       mov.w	@(0x10:16,r3),r2
    85e6:	69 25       	69 25             mov.w	@r2,r5
    85e8:	6f f5 00 06 	6f f5 00 06       mov.w	r5,@(0x6:16,e7)
    85ec:	0d 55       	0d 55             mov.w	r5,r5
    85ee:	46 04       	46 04             bne	.+4 (85f4)
    85f0:	5a 00 86 7a 	5a 00 86 7a       jmp	@0x867a:0

000085f4 <.Lh8BR29>:
    85f4:	6f 75 00 0c 	6f 75 00 0c       mov.w	@(0xc:16,r7),r5
    85f8:	6f f5 00 08 	6f f5 00 08       mov.w	r5,@(0x8:16,e7)
    85fc:	09 55       	09 55             add.w	r5,r5
    85fe:	6f f5 00 08 	6f f5 00 08       mov.w	r5,@(0x8:16,e7)
    8602:	6f 74 00 06 	6f 74 00 06       mov.w	@(0x6:16,r7),r4
    8606:	09 44       	09 44             add.w	r4,r4
    8608:	09 24       	09 24             add.w	r2,r4

0000860a <.L5>:
    860a:	69 41       	69 41             mov.w	@r4,r1
    860c:	0d 12       	0d 12             mov.w	r1,r2
    860e:	11 01       	11 01             shlr	r1h
    8610:	13 09       	13 09             rotxr	r1l
    8612:	6f 75 00 0c 	6f 75 00 0c       mov.w	@(0xc:16,r7),r5
    8616:	1d 15       	1d 15             cmp.w	r1,r5
    8618:	46 10       	46 10             bne	.+16 (862a)
    861a:	6f 75 00 08 	6f 75 00 08       mov.w	@(0x8:16,r7),r5
    861e:	69 c5       	69 c5             mov.w	r5,@e4
    8620:	79 05 00 01 	79 05 00 01       mov.w	#0x1,r5
    8624:	6f f5 00 0a 	6f f5 00 0a       mov.w	r5,@(0xa:16,e7)
    8628:	40 40       	40 40             bra	.+64 (866a)

0000862a <.L6>:
    862a:	6f 75 00 0a 	6f 75 00 0a       mov.w	@(0xa:16,r7),r5
    862e:	47 3a       	47 3a             beq	.+58 (866a)
    8630:	0d 66       	0d 66             mov.w	r6,r6
    8632:	46 36       	46 36             bne	.+54 (866a)
    8634:	73 0a       	73 0a             btst	#0x0,r2l
    8636:	47 32       	47 32             beq	.+50 (866a)
    8638:	6b 02 96 56 	6b 02 96 56       mov.w	@0x9656:16,r2
    863c:	6b 00 98 f2 	6b 00 98 f2       mov.w	@0x98f2:16,r0
    8640:	0d 23       	0d 23             mov.w	r2,r3
    8642:	09 33       	09 33             add.w	r3,r3
    8644:	09 33       	09 33             add.w	r3,r3
    8646:	09 33       	09 33             add.w	r3,r3
    8648:	19 23       	19 23             sub.w	r2,r3
    864a:	09 33       	09 33             add.w	r3,r3
    864c:	09 33       	09 33             add.w	r3,r3
    864e:	09 03       	09 03             add.w	r0,r3
    8650:	6b 00 98 e6 	6b 00 98 e6       mov.w	@0x98e6:16,r0
    8654:	0d 12       	0d 12             mov.w	r1,r2
    8656:	09 22       	09 22             add.w	r2,r2
    8658:	09 12       	09 12             add.w	r1,r2
    865a:	09 22       	09 22             add.w	r2,r2
    865c:	09 02       	09 02             add.w	r0,r2
    865e:	6f 22 00 04 	6f 22 00 04       mov.w	@(0x4:16,r2),r2
    8662:	6f b2 00 18 	6f b2 00 18       mov.w	r2,@(0x18:16,e3)
    8666:	79 06 00 01 	79 06 00 01       mov.w	#0x1,r6

0000866a <.L4>:
    866a:	1b 84       	1b 84             subs	#0x2,er4
    866c:	6f 75 00 06 	6f 75 00 06       mov.w	@(0x6:16,r7),r5
    8670:	1b 05       	1b 05             subs	#0x1,er5
    8672:	6f f5 00 06 	6f f5 00 06       mov.w	r5,@(0x6:16,e7)
    8676:	0d 55       	0d 55             mov.w	r5,r5
    8678:	46 90       	46 90             bne	.-112 (860a)

0000867a <.L3>:
    867a:	6f 75 00 0a 	6f 75 00 0a       mov.w	@(0xa:16,r7),r5
    867e:	47 28       	47 28             beq	.+40 (86a8)
    8680:	0d 66       	0d 66             mov.w	r6,r6
    8682:	46 20       	46 20             bne	.+32 (86a4)
    8684:	6b 03 96 56 	6b 03 96 56       mov.w	@0x9656:16,r3
    8688:	6b 00 98 f2 	6b 00 98 f2       mov.w	@0x98f2:16,r0
    868c:	0d 32       	0d 32             mov.w	r3,r2
    868e:	09 22       	09 22             add.w	r2,r2
    8690:	09 22       	09 22             add.w	r2,r2
    8692:	09 22       	09 22             add.w	r2,r2
    8694:	19 32       	19 32             sub.w	r3,r2
    8696:	09 22       	09 22             add.w	r2,r2
    8698:	09 22       	09 22             add.w	r2,r2
    869a:	09 02       	09 02             add.w	r0,r2
    869c:	6f 23 00 1a 	6f 23 00 1a       mov.w	@(0x1a:16,r2),r3
    86a0:	6f a3 00 18 	6f a3 00 18       mov.w	r3,@(0x18:16,e2)

000086a4 <.L11>:
    86a4:	5e 00 8a 58 	5e 00 8a 58       jsr	@0x8a58:0

000086a8 <.L13>:
    86a8:	6d 76       	6d 76             mov.w	@r7+,r6
    86aa:	6d 75       	6d 75             mov.w	@r7+,r5
    86ac:	6d 74       	6d 74             mov.w	@r7+,r4
    86ae:	79 03 00 08 	79 03 00 08       mov.w	#0x8,r3
    86b2:	09 37       	09 37             add.w	r3,r7
    86b4:	54 70       	54 70             rts	

000086b6 <_getSemaphore>:
    86b6:	79 03 00 08 	79 03 00 08       mov.w	#0x8,r3
    86ba:	19 37       	19 37             sub.w	r3,r7
    86bc:	6d f4       	6d f4             mov.w	r4,@-e7
    86be:	6d f5       	6d f5             mov.w	r5,@-e7
    86c0:	6d f6       	6d f6             mov.w	r6,@-e7
    86c2:	6f f0 00 0c 	6f f0 00 0c       mov.w	r0,@(0xc:16,e7)
    86c6:	19 55       	19 55             sub.w	r5,r5
    86c8:	6f f5 00 0a 	6f f5 00 0a       mov.w	r5,@(0xa:16,e7)
    86cc:	6b 02 96 56 	6b 02 96 56       mov.w	@0x9656:16,r2
    86d0:	6b 00 98 ec 	6b 00 98 ec       mov.w	@0x98ec:16,r0
    86d4:	0d 23       	0d 23             mov.w	r2,r3
    86d6:	09 33       	09 33             add.w	r3,r3
    86d8:	09 33       	09 33             add.w	r3,r3
    86da:	09 33       	09 33             add.w	r3,r3
    86dc:	09 23       	09 23             add.w	r2,r3
    86de:	09 33       	09 33             add.w	r3,r3
    86e0:	09 03       	09 03             add.w	r0,r3
    86e2:	6f 32 00 10 	6f 32 00 10       mov.w	@(0x10:16,r3),r2
    86e6:	69 25       	69 25             mov.w	@r2,r5
    86e8:	6f f5 00 06 	6f f5 00 06       mov.w	r5,@(0x6:16,e7)
    86ec:	0d 55       	0d 55             mov.w	r5,r5
    86ee:	46 04       	46 04             bne	.+4 (86f4)
    86f0:	5a 00 87 74 	5a 00 87 74       jmp	@0x8774:0

000086f4 <.Lh8BR168>:
    86f4:	6f 75 00 0c 	6f 75 00 0c       mov.w	@(0xc:16,r7),r5
    86f8:	6f f5 00 08 	6f f5 00 08       mov.w	r5,@(0x8:16,e7)
    86fc:	09 55       	09 55             add.w	r5,r5
    86fe:	6f f5 00 08 	6f f5 00 08       mov.w	r5,@(0x8:16,e7)
    8702:	6f 74 00 06 	6f 74 00 06       mov.w	@(0x6:16,r7),r4
    8706:	09 44       	09 44             add.w	r4,r4
    8708:	09 24       	09 24             add.w	r2,r4
    870a:	6f 76 00 08 	6f 76 00 08       mov.w	@(0x8:16,r7),r6
    870e:	6f 75 00 0c 	6f 75 00 0c       mov.w	@(0xc:16,r7),r5
    8712:	09 56       	09 56             add.w	r5,r6
    8714:	09 66       	09 66             add.w	r6,r6

00008716 <.L18>:
    8716:	69 42       	69 42             mov.w	@r4,r2
    8718:	11 02       	11 02             shlr	r2h
    871a:	13 0a       	13 0a             rotxr	r2l
    871c:	6f 75 00 0c 	6f 75 00 0c       mov.w	@(0xc:16,r7),r5
    8720:	1d 25       	1d 25             cmp.w	r2,r5
    8722:	46 40       	46 40             bne	.+64 (8764)
    8724:	6f 75 00 08 	6f 75 00 08       mov.w	@(0x8:16,r7),r5
    8728:	cd 01       	cd 01             or.b	#0x1,r5l
    872a:	69 c5       	69 c5             mov.w	r5,@e4
    872c:	79 05 00 01 	79 05 00 01       mov.w	#0x1,r5
    8730:	6f f5 00 0a 	6f f5 00 0a       mov.w	r5,@(0xa:16,e7)
    8734:	6b 02 98 e6 	6b 02 98 e6       mov.w	@0x98e6:16,r2
    8738:	0d 63       	0d 63             mov.w	r6,r3
    873a:	09 23       	09 23             add.w	r2,r3
    873c:	6b 02 96 56 	6b 02 96 56       mov.w	@0x9656:16,r2
    8740:	6b 00 98 f2 	6b 00 98 f2       mov.w	@0x98f2:16,r0
    8744:	0d 21       	0d 21             mov.w	r2,r1
    8746:	09 11       	09 11             add.w	r1,r1
    8748:	09 11       	09 11             add.w	r1,r1
    874a:	09 11       	09 11             add.w	r1,r1
    874c:	19 21       	19 21             sub.w	r2,r1
    874e:	09 11       	09 11             add.w	r1,r1
    8750:	09 11       	09 11             add.w	r1,r1
    8752:	09 01       	09 01             add.w	r0,r1
    8754:	6f 33 00 04 	6f 33 00 04       mov.w	@(0x4:16,r3),r3
    8758:	6f 12 00 18 	6f 12 00 18       mov.w	@(0x18:16,r1),r2
    875c:	1d 23       	1d 23             cmp.w	r2,r3
    875e:	43 04       	43 04             bls	.+4 (8764)
    8760:	6f 93 00 18 	6f 93 00 18       mov.w	r3,@(0x18:16,e1)

00008764 <.L17>:
    8764:	1b 84       	1b 84             subs	#0x2,er4
    8766:	6f 75 00 06 	6f 75 00 06       mov.w	@(0x6:16,r7),r5
    876a:	1b 05       	1b 05             subs	#0x1,er5
    876c:	6f f5 00 06 	6f f5 00 06       mov.w	r5,@(0x6:16,e7)
    8770:	0d 55       	0d 55             mov.w	r5,r5
    8772:	46 a2       	46 a2             bne	.-94 (8716)

00008774 <.L16>:
    8774:	6f 75 00 0a 	6f 75 00 0a       mov.w	@(0xa:16,r7),r5
    8778:	46 20       	46 20             bne	.+32 (879a)
    877a:	6b 03 96 56 	6b 03 96 56       mov.w	@0x9656:16,r3
    877e:	6b 00 98 ec 	6b 00 98 ec       mov.w	@0x98ec:16,r0
    8782:	0d 32       	0d 32             mov.w	r3,r2
    8784:	09 22       	09 22             add.w	r2,r2
    8786:	09 22       	09 22             add.w	r2,r2
    8788:	09 22       	09 22             add.w	r2,r2
    878a:	09 32       	09 32             add.w	r3,r2
    878c:	09 22       	09 22             add.w	r2,r2
    878e:	09 02       	09 02             add.w	r0,r2
    8790:	6f 22 00 0a 	6f 22 00 0a       mov.w	@(0xa:16,r2),r2
    8794:	79 00 03 eb 	79 00 03 eb       mov.w	#0x3eb,r0
    8798:	5d 20       	5d 20             jsr	@r2

0000879a <.L23>:
    879a:	6d 76       	6d 76             mov.w	@r7+,r6
    879c:	6d 75       	6d 75             mov.w	@r7+,r5
    879e:	6d 74       	6d 74             mov.w	@r7+,r4
    87a0:	79 03 00 08 	79 03 00 08       mov.w	#0x8,r3
    87a4:	09 37       	09 37             add.w	r3,r7
    87a6:	54 70       	54 70             rts	

000087a8 <_raiseSignal>:
    87a8:	1b 87       	1b 87             subs	#0x2,er7
    87aa:	1b 87       	1b 87             subs	#0x2,er7
    87ac:	6d f4       	6d f4             mov.w	r4,@-e7
    87ae:	6d f5       	6d f5             mov.w	r5,@-e7
    87b0:	6d f6       	6d f6             mov.w	r6,@-e7
    87b2:	0d 04       	0d 04             mov.w	r0,r4
    87b4:	0d 42       	0d 42             mov.w	r4,r2
    87b6:	09 22       	09 22             add.w	r2,r2
    87b8:	09 22       	09 22             add.w	r2,r2
    87ba:	09 22       	09 22             add.w	r2,r2
    87bc:	6b 06 98 ee 	6b 06 98 ee       mov.w	@0x98ee:16,r6
    87c0:	09 26       	09 26             add.w	r2,r6
    87c2:	6f 61 00 02 	6f 61 00 02       mov.w	@(0x2:16,r6),r1
    87c6:	6f f1 00 08 	6f f1 00 08       mov.w	r1,@(0x8:16,e7)
    87ca:	19 55       	19 55             sub.w	r5,r5
    87cc:	6b 01 96 56 	6b 01 96 56       mov.w	@0x9656:16,r1
    87d0:	6f f1 00 06 	6f f1 00 06       mov.w	r1,@(0x6:16,e7)
    87d4:	5e 00 88 70 	5e 00 88 70       jsr	@0x8870:0
    87d8:	6b 02 98 e8 	6b 02 98 e8       mov.w	@0x98e8:16,r2
    87dc:	1d 24       	1d 24             cmp.w	r2,r4
    87de:	43 5a       	43 5a             bls	.+90 (883a)
    87e0:	6b 03 96 56 	6b 03 96 56       mov.w	@0x9656:16,r3
    87e4:	6b 00 98 ec 	6b 00 98 ec       mov.w	@0x98ec:16,r0
    87e8:	0d 32       	0d 32             mov.w	r3,r2
    87ea:	09 22       	09 22             add.w	r2,r2
    87ec:	09 22       	09 22             add.w	r2,r2
    87ee:	09 22       	09 22             add.w	r2,r2
    87f0:	09 32       	09 32             add.w	r3,r2
    87f2:	09 22       	09 22             add.w	r2,r2
    87f4:	09 02       	09 02             add.w	r0,r2
    87f6:	6f 22 00 0a 	6f 22 00 0a       mov.w	@(0xa:16,r2),r2
    87fa:	79 00 03 ec 	79 00 03 ec       mov.w	#0x3ec,r0
    87fe:	5d 20       	5d 20             jsr	@r2
    8800:	40 38       	40 38             bra	.+56 (883a)

00008802 <.L6>:
    8802:	69 62       	69 62             mov.w	@r6,r2
    8804:	0d 53       	0d 53             mov.w	r5,r3
    8806:	09 33       	09 33             add.w	r3,r3
    8808:	09 23       	09 23             add.w	r2,r3
    880a:	69 32       	69 32             mov.w	@r3,r2
    880c:	6f 71 00 06 	6f 71 00 06       mov.w	@(0x6:16,r7),r1
    8810:	1d 21       	1d 21             cmp.w	r2,r1
    8812:	46 24       	46 24             bne	.+36 (8838)
    8814:	19 55       	19 55             sub.w	r5,r5
    8816:	40 12       	40 12             bra	.+18 (882a)

00008818 <.L11>:
    8818:	6f 63 00 04 	6f 63 00 04       mov.w	@(0x4:16,r6),r3
    881c:	0d 52       	0d 52             mov.w	r5,r2
    881e:	09 22       	09 22             add.w	r2,r2
    8820:	09 32       	09 32             add.w	r3,r2
    8822:	69 20       	69 20             mov.w	@r2,r0
    8824:	5e 00 80 f6 	5e 00 80 f6       jsr	@0x80f6:0
    8828:	0b 05       	0b 05             adds	#0x1,er5

0000882a <.L15>:
    882a:	6f 62 00 06 	6f 62 00 06       mov.w	@(0x6:16,r6),r2
    882e:	1d 25       	1d 25             cmp.w	r2,r5
    8830:	45 e6       	45 e6             bcs	.-26 (8818)
    8832:	5e 00 8a 58 	5e 00 8a 58       jsr	@0x8a58:0
    8836:	40 2c       	40 2c             bra	.+44 (8864)

00008838 <.L5>:
    8838:	0b 05       	0b 05             adds	#0x1,er5

0000883a <.L14>:
    883a:	6f 71 00 08 	6f 71 00 08       mov.w	@(0x8:16,r7),r1
    883e:	1d 15       	1d 15             cmp.w	r1,r5
    8840:	45 c0       	45 c0             bcs	.-64 (8802)
    8842:	6b 02 98 ec 	6b 02 98 ec       mov.w	@0x98ec:16,r2
    8846:	6f 73 00 06 	6f 73 00 06       mov.w	@(0x6:16,r7),r3
    884a:	09 33       	09 33             add.w	r3,r3
    884c:	09 33       	09 33             add.w	r3,r3
    884e:	09 33       	09 33             add.w	r3,r3
    8850:	6f 71 00 06 	6f 71 00 06       mov.w	@(0x6:16,r7),r1
    8854:	09 13       	09 13             add.w	r1,r3
    8856:	09 33       	09 33             add.w	r3,r3
    8858:	09 23       	09 23             add.w	r2,r3
    885a:	6f 32 00 0a 	6f 32 00 0a       mov.w	@(0xa:16,r3),r2
    885e:	79 00 03 ed 	79 00 03 ed       mov.w	#0x3ed,r0
    8862:	5d 20       	5d 20             jsr	@r2

00008864 <.L1>:
    8864:	6d 76       	6d 76             mov.w	@r7+,r6
    8866:	6d 75       	6d 75             mov.w	@r7+,r5
    8868:	6d 74       	6d 74             mov.w	@r7+,r4
    886a:	0b 87       	0b 87             adds	#0x2,er7
    886c:	0b 87       	0b 87             adds	#0x2,er7
    886e:	54 70       	54 70             rts	

00008870 <_hal_disable_interrupt>:
    8870:	04 80       	04 80             orc	#0x80,ccr
    8872:	54 70       	54 70             rts	

00008874 <_hal_enable_interrupt>:
    8874:	06 7f       	06 7f             andc	#0x7f,ccr
    8876:	54 70       	54 70             rts	

00008878 <_hal_irq0>:
    8878:	6d 76       	6d 76             mov.w	@r7+,r6
    887a:	6d 76       	6d 76             mov.w	@r7+,r6
    887c:	55 56       	55 56             bsr	.+86 (88d4)
    887e:	79 00 00 00 	79 00 00 00       mov.w	#0x0,r0
    8882:	5e 00 84 a2 	5e 00 84 a2       jsr	@0x84a2:0
    8886:	55 72       	55 72             bsr	.+114 (88fa)
    8888:	56 70       	56 70             rte	

0000888a <_hal_irq1>:
    888a:	6d 76       	6d 76             mov.w	@r7+,r6
    888c:	6d 76       	6d 76             mov.w	@r7+,r6
    888e:	55 44       	55 44             bsr	.+68 (88d4)
    8890:	79 00 00 01 	79 00 00 01       mov.w	#0x1,r0
    8894:	5e 00 84 a2 	5e 00 84 a2       jsr	@0x84a2:0
    8898:	55 60       	55 60             bsr	.+96 (88fa)
    889a:	56 70       	56 70             rte	

0000889c <_hal_setIRQ0>:
    889c:	79 00 fd 94 	79 00 fd 94       mov.w	#0xfd94,r0
    88a0:	79 01 88 78 	79 01 88 78       mov.w	#0x8878,r1
    88a4:	69 81       	69 81             mov.w	r1,@e0
    88a6:	79 00 ff c7 	79 00 ff c7       mov.w	#0xffc7,r0
    88aa:	7d 00 70 00 	7d 00 70 00       bset	#0x0,@r0
    88ae:	79 00 ff c6 	79 00 ff c6       mov.w	#0xffc6,r0
    88b2:	7d 00 70 00 	7d 00 70 00       bset	#0x0,@r0
    88b6:	54 70       	54 70             rts	

000088b8 <_hal_setIRQ1>:
    88b8:	79 00 fd 96 	79 00 fd 96       mov.w	#0xfd96,r0
    88bc:	79 01 88 8a 	79 01 88 8a       mov.w	#0x888a,r1
    88c0:	69 81       	69 81             mov.w	r1,@e0
    88c2:	79 00 ff c7 	79 00 ff c7       mov.w	#0xffc7,r0
    88c6:	7d 00 70 10 	7d 00 70 10       bset	#0x1,@r0
    88ca:	79 00 ff c6 	79 00 ff c6       mov.w	#0xffc6,r0
    88ce:	7d 00 70 10 	7d 00 70 10       bset	#0x1,@r0
    88d2:	54 70       	54 70             rts	

000088d4 <_hal_storeRegisters>:
    88d4:	6d f0       	6d f0             mov.w	r0,@-e7
    88d6:	6b 00 98 b8 	6b 00 98 b8       mov.w	@0x98b8:16,r0
    88da:	6f 81 00 02 	6f 81 00 02       mov.w	r1,@(0x2:16,e0)
    88de:	6d 71       	6d 71             mov.w	@r7+,r1
    88e0:	6f 81 00 00 	6f 81 00 00       mov.w	r1,@(0x0:16,e0)
    88e4:	6f 82 00 04 	6f 82 00 04       mov.w	r2,@(0x4:16,e0)
    88e8:	6f 83 00 06 	6f 83 00 06       mov.w	r3,@(0x6:16,e0)
    88ec:	6f 84 00 08 	6f 84 00 08       mov.w	r4,@(0x8:16,e0)
    88f0:	6f 85 00 0a 	6f 85 00 0a       mov.w	r5,@(0xa:16,e0)
    88f4:	6f 86 00 0c 	6f 86 00 0c       mov.w	r6,@(0xc:16,e0)
    88f8:	54 70       	54 70             rts	

000088fa <_hal_retrieveRegisters>:
    88fa:	6b 00 98 b8 	6b 00 98 b8       mov.w	@0x98b8:16,r0
    88fe:	6f 06 00 0c 	6f 06 00 0c       mov.w	@(0xc:16,r0),r6
    8902:	6f 05 00 0a 	6f 05 00 0a       mov.w	@(0xa:16,r0),r5
    8906:	6f 04 00 08 	6f 04 00 08       mov.w	@(0x8:16,r0),r4
    890a:	6f 03 00 06 	6f 03 00 06       mov.w	@(0x6:16,r0),r3
    890e:	6f 02 00 04 	6f 02 00 04       mov.w	@(0x4:16,r0),r2
    8912:	6f 01 00 02 	6f 01 00 02       mov.w	@(0x2:16,r0),r1
    8916:	6f 00 00 00 	6f 00 00 00       mov.w	@(0x0:16,r0),r0
    891a:	54 70       	54 70             rts	

0000891c <_hal_initStack>:
    891c:	6d 76       	6d 76             mov.w	@r7+,r6
    891e:	0d 75       	0d 75             mov.w	r7,r5
    8920:	0d 07       	0d 07             mov.w	r0,r7
    8922:	6d f5       	6d f5             mov.w	r5,@-e7
    8924:	6d f6       	6d f6             mov.w	r6,@-e7
    8926:	54 70       	54 70             rts	

00008928 <_hal_restoreStack>:
    8928:	6d 77       	6d 77             mov.w	@r7+,r7
    892a:	54 70       	54 70             rts	

0000892c <_hal_clearRegisters>:
    892c:	79 00 00 00 	79 00 00 00       mov.w	#0x0,r0
    8930:	0d 01       	0d 01             mov.w	r0,r1
    8932:	0d 02       	0d 02             mov.w	r0,r2
    8934:	0d 03       	0d 03             mov.w	r0,r3
    8936:	0d 04       	0d 04             mov.w	r0,r4
    8938:	0d 05       	0d 05             mov.w	r0,r5
    893a:	0d 06       	0d 06             mov.w	r0,r6
    893c:	54 70       	54 70             rts	

0000893e <_hal_timertick>:
    893e:	79 06 ff 91 	79 06 ff 91       mov.w	#0xff91,r6
    8942:	7d 60 72 30 	7d 60 72 30       bclr	#0x3,@r6
    8946:	6b 06 98 da 	6b 06 98 da       mov.w	@0x98da:16,r6
    894a:	6f e0 00 08 	6f e0 00 08       mov.w	r0,@(0x8:16,e6)
    894e:	6f e1 00 0a 	6f e1 00 0a       mov.w	r1,@(0xa:16,e6)
    8952:	6f e2 00 0c 	6f e2 00 0c       mov.w	r2,@(0xc:16,e6)
    8956:	6f e3 00 0e 	6f e3 00 0e       mov.w	r3,@(0xe:16,e6)
    895a:	6f e4 00 10 	6f e4 00 10       mov.w	r4,@(0x10:16,e6)
    895e:	6f e5 00 12 	6f e5 00 12       mov.w	r5,@(0x12:16,e6)
    8962:	6f 75 00 02 	6f 75 00 02       mov.w	@(0x2:16,r7),r5
    8966:	6f e5 00 14 	6f e5 00 14       mov.w	r5,@(0x14:16,e6)
    896a:	6f 75 00 04 	6f 75 00 04       mov.w	@(0x4:16,r7),r5
    896e:	6f e5 00 06 	6f e5 00 06       mov.w	r5,@(0x6:16,e6)
    8972:	6f 75 00 06 	6f 75 00 06       mov.w	@(0x6:16,r7),r5
    8976:	6f e5 00 04 	6f e5 00 04       mov.w	r5,@(0x4:16,e6)
    897a:	5e 00 81 72 	5e 00 81 72       jsr	@0x8172:0
    897e:	5e 00 80 46 	5e 00 80 46       jsr	@0x8046:0
    8982:	5e 00 82 66 	5e 00 82 66       jsr	@0x8266:0
    8986:	79 01 00 08 	79 01 00 08       mov.w	#0x8,r1
    898a:	09 17       	09 17             add.w	r1,r7
    898c:	73 18       	73 18             btst	#0x1,r0l
    898e:	47 06       	47 06             beq	.+6 (8996)
    8990:	79 00 8a 12 	79 00 8a 12       mov.w	#0x8a12,r0
    8994:	6d f0       	6d f0             mov.w	r0,@-e7

00008996 <nopush_t_return>:
    8996:	6b 00 98 da 	6b 00 98 da       mov.w	@0x98da:16,r0
    899a:	6f 01 00 04 	6f 01 00 04       mov.w	@(0x4:16,r0),r1
    899e:	6d f1       	6d f1             mov.w	r1,@-e7
    89a0:	6f 01 00 06 	6f 01 00 06       mov.w	@(0x6:16,r0),r1
    89a4:	6d f1       	6d f1             mov.w	r1,@-e7
    89a6:	6f 06 00 14 	6f 06 00 14       mov.w	@(0x14:16,r0),r6
    89aa:	6f 05 00 12 	6f 05 00 12       mov.w	@(0x12:16,r0),r5
    89ae:	6f 04 00 10 	6f 04 00 10       mov.w	@(0x10:16,r0),r4
    89b2:	6f 03 00 0e 	6f 03 00 0e       mov.w	@(0xe:16,r0),r3
    89b6:	6f 02 00 0c 	6f 02 00 0c       mov.w	@(0xc:16,r0),r2
    89ba:	6f 01 00 0a 	6f 01 00 0a       mov.w	@(0xa:16,r0),r1
    89be:	6f 00 00 08 	6f 00 00 08       mov.w	@(0x8:16,r0),r0
    89c2:	56 70       	56 70             rte	

000089c4 <_hal_startTimer>:
    89c4:	79 00 ff 90 	79 00 ff 90       mov.w	#0xff90,r0
    89c8:	7d 00 70 30 	7d 00 70 30       bset	#0x3,@r0
    89cc:	06 7f       	06 7f             andc	#0x7f,ccr
    89ce:	54 70       	54 70             rts	

000089d0 <_hal_stopTimer>:
    89d0:	04 80       	04 80             orc	#0x80,ccr
    89d2:	79 00 ff 90 	79 00 ff 90       mov.w	#0xff90,r0
    89d6:	7d 00 72 30 	7d 00 72 30       bclr	#0x3,@r0
    89da:	54 70       	54 70             rts	

000089dc <_hal_readTimer>:
    89dc:	79 01 ff 92 	79 01 ff 92       mov.w	#0xff92,r1
    89e0:	69 16       	69 16             mov.w	@r1,r6
    89e2:	54 70       	54 70             rts	

000089e4 <_hal_getFRCval>:
    89e4:	6b 06 ff 92 	6b 06 ff 92       mov.w	@0xff92:16,r6
    89e8:	54 70       	54 70             rts	

000089ea <_hal_initTimer>:
    89ea:	04 80       	04 80             orc	#0x80,ccr
    89ec:	6d f0       	6d f0             mov.w	r0,@-e7
    89ee:	79 00 ff 91 	79 00 ff 91       mov.w	#0xff91,r0
    89f2:	f9 01       	f9 01             mov.b	#0x1,r1l
    89f4:	68 89       	68 89             mov.b	r1l,@e0
    89f6:	79 00 ff 96 	79 00 ff 96       mov.w	#0xff96,r0
    89fa:	f9 02       	f9 02             mov.b	#0x2,r1l
    89fc:	68 89       	68 89             mov.b	r1l,@e0
    89fe:	79 00 ff 94 	79 00 ff 94       mov.w	#0xff94,r0
    8a02:	6b 01 98 e0 	6b 01 98 e0       mov.w	@0x98e0:16,r1
    8a06:	69 81       	69 81             mov.w	r1,@e0
    8a08:	79 00 fd a2 	79 00 fd a2       mov.w	#0xfda2,r0
    8a0c:	6d 71       	6d 71             mov.w	@r7+,r1
    8a0e:	69 81       	69 81             mov.w	r1,@e0
    8a10:	54 70       	54 70             rts	

00008a12 <_hal_t_return>:
    8a12:	04 80       	04 80             orc	#0x80,ccr
    8a14:	6b 00 96 56 	6b 00 96 56       mov.w	@0x9656:16,r0
    8a18:	5e 00 82 f0 	5e 00 82 f0       jsr	@0x82f0:0
    8a1c:	5e 00 80 46 	5e 00 80 46       jsr	@0x8046:0
    8a20:	5e 00 82 66 	5e 00 82 66       jsr	@0x8266:0
    8a24:	73 18       	73 18             btst	#0x1,r0l
    8a26:	47 06       	47 06             beq	.+6 (8a2e)
    8a28:	79 00 8a 12 	79 00 8a 12       mov.w	#0x8a12,r0
    8a2c:	6d f0       	6d f0             mov.w	r0,@-e7

00008a2e <nopush_t_return>:
    8a2e:	6b 00 98 da 	6b 00 98 da       mov.w	@0x98da:16,r0
    8a32:	6f 01 00 04 	6f 01 00 04       mov.w	@(0x4:16,r0),r1
    8a36:	6d f1       	6d f1             mov.w	r1,@-e7
    8a38:	6f 06 00 14 	6f 06 00 14       mov.w	@(0x14:16,r0),r6
    8a3c:	6f 05 00 12 	6f 05 00 12       mov.w	@(0x12:16,r0),r5
    8a40:	6f 04 00 10 	6f 04 00 10       mov.w	@(0x10:16,r0),r4
    8a44:	6f 03 00 0e 	6f 03 00 0e       mov.w	@(0xe:16,r0),r3
    8a48:	6f 02 00 0c 	6f 02 00 0c       mov.w	@(0xc:16,r0),r2
    8a4c:	6f 01 00 0a 	6f 01 00 0a       mov.w	@(0xa:16,r0),r1
    8a50:	6f 00 00 08 	6f 00 00 08       mov.w	@(0x8:16,r0),r0
    8a54:	06 7f       	06 7f             andc	#0x7f,ccr
    8a56:	54 70       	54 70             rts	

00008a58 <_hal_yield>:
    8a58:	04 80       	04 80             orc	#0x80,ccr
    8a5a:	6b 80 9d fe 	6b 80 9d fe       mov.w	r0,@0x9dfe:16
    8a5e:	6b 86 9d e0 	6b 86 9d e0       mov.w	r6,@0x9de0:16
    8a62:	69 70       	69 70             mov.w	@r7,r0
    8a64:	6b 80 9d e2 	6b 80 9d e2       mov.w	r0,@0x9de2:16
    8a68:	6b 00 98 da 	6b 00 98 da       mov.w	@0x98da:16,r0
    8a6c:	6f 81 00 0a 	6f 81 00 0a       mov.w	r1,@(0xa:16,e0)
    8a70:	6b 01 9d fe 	6b 01 9d fe       mov.w	@0x9dfe:16,r1
    8a74:	6f 81 00 08 	6f 81 00 08       mov.w	r1,@(0x8:16,e0)
    8a78:	6f 82 00 0c 	6f 82 00 0c       mov.w	r2,@(0xc:16,e0)
    8a7c:	6f 83 00 0e 	6f 83 00 0e       mov.w	r3,@(0xe:16,e0)
    8a80:	6f 84 00 10 	6f 84 00 10       mov.w	r4,@(0x10:16,e0)
    8a84:	6f 85 00 12 	6f 85 00 12       mov.w	r5,@(0x12:16,e0)
    8a88:	6b 06 9d e0 	6b 06 9d e0       mov.w	@0x9de0:16,r6
    8a8c:	6f 86 00 14 	6f 86 00 14       mov.w	r6,@(0x14:16,e0)
    8a90:	6b 01 9d e2 	6b 01 9d e2       mov.w	@0x9de2:16,r1
    8a94:	6f 81 00 04 	6f 81 00 04       mov.w	r1,@(0x4:16,e0)
    8a98:	5e 00 80 46 	5e 00 80 46       jsr	@0x8046:0
    8a9c:	5e 00 82 66 	5e 00 82 66       jsr	@0x8266:0
    8aa0:	6d 71       	6d 71             mov.w	@r7+,r1
    8aa2:	73 18       	73 18             btst	#0x1,r0l
    8aa4:	47 06       	47 06             beq	.+6 (8aac)
    8aa6:	79 00 8a 12 	79 00 8a 12       mov.w	#0x8a12,r0
    8aaa:	6d f0       	6d f0             mov.w	r0,@-e7

00008aac <nopush_t_return3>:
    8aac:	6b 00 98 da 	6b 00 98 da       mov.w	@0x98da:16,r0
    8ab0:	6f 01 00 04 	6f 01 00 04       mov.w	@(0x4:16,r0),r1
    8ab4:	6d f1       	6d f1             mov.w	r1,@-e7
    8ab6:	6f 06 00 14 	6f 06 00 14       mov.w	@(0x14:16,r0),r6
    8aba:	6f 05 00 12 	6f 05 00 12       mov.w	@(0x12:16,r0),r5
    8abe:	6f 04 00 10 	6f 04 00 10       mov.w	@(0x10:16,r0),r4
    8ac2:	6f 03 00 0e 	6f 03 00 0e       mov.w	@(0xe:16,r0),r3
    8ac6:	6f 02 00 0c 	6f 02 00 0c       mov.w	@(0xc:16,r0),r2
    8aca:	6f 01 00 0a 	6f 01 00 0a       mov.w	@(0xa:16,r0),r1
    8ace:	6f 00 00 08 	6f 00 00 08       mov.w	@(0x8:16,r0),r0
    8ad2:	06 7f       	06 7f             andc	#0x7f,ccr
    8ad4:	54 70       	54 70             rts	

00008ad6 <_irq0_isr>:
    8ad6:	54 70       	54 70             rts	

00008ad8 <_irq1_isr>:
    8ad8:	fa 01       	fa 01             mov.b	#0x1,r2l
    8ada:	6a 8a ff cc 	6a 8a ff cc       mov.b	r2l,@0xffcc:16
    8ade:	6b 02 00 00 	6b 02 00 00       mov.w	@0x0:16,r2
    8ae2:	5d 20       	5d 20             jsr	@r2

00008ae4 <.ef>:
    8ae4:	54 70       	54 70             rts	

00008ae6 <_irqerror>:
    8ae6:	6d f4       	6d f4             mov.w	r4,@-e7
    8ae8:	0d 04       	0d 04             mov.w	r0,r4
    8aea:	5e 00 89 d0 	5e 00 89 d0       jsr	@0x89d0:0
    8aee:	0d 40       	0d 40             mov.w	r4,r0
    8af0:	5e 00 92 50 	5e 00 92 50       jsr	@0x9250:0

00008af4 <.L8>:
    8af4:	40 fe       	40 fe             bra	.-2 (8af4)

00008af6 <_userinit>:
    8af6:	6b 02 98 a4 	6b 02 98 a4       mov.w	@0x98a4:16,r2
    8afa:	6b 82 9e 00 	6b 82 9e 00       mov.w	r2,@0x9e00:16

00008afe <.bb>:
    8afe:	79 00 14 98 	79 00 14 98       mov.w	#0x1498,r0
    8b02:	5e 00 92 98 	5e 00 92 98       jsr	@0x9298:0

00008b06 <.eb>:
    8b06:	54 70       	54 70             rts	

00008b08 <_idletask>:
    8b08:	54 70       	54 70             rts	

00008b0a <_tock>:
    8b0a:	6a 08 98 bb 	6a 08 98 bb       mov.b	@0x98bb:16,r0l
    8b0e:	a8 63       	a8 63             cmp.b	#0x63,r0l
    8b10:	43 5c       	43 5c             bls	.+92 (8b6e)
    8b12:	f0 00       	f0 00             mov.b	#0x0,r0h
    8b14:	fb 64       	fb 64             mov.b	#0x64,r3l
    8b16:	0d 02       	0d 02             mov.w	r0,r2
    8b18:	51 b2       	51 b2             divxu.b	r3l,r2
    8b1a:	6a 09 98 bc 	6a 09 98 bc       mov.b	@0x98bc:16,r1l
    8b1e:	08 a9       	08 a9             add.b	r2l,r1l
    8b20:	6a 89 98 bc 	6a 89 98 bc       mov.b	r1l,@0x98bc:16
    8b24:	0d 02       	0d 02             mov.w	r0,r2
    8b26:	51 b2       	51 b2             divxu.b	r3l,r2
    8b28:	0c 2a       	0c 2a             mov.b	r2h,r2l
    8b2a:	6a 8a 98 bb 	6a 8a 98 bb       mov.b	r2l,@0x98bb:16
    8b2e:	a9 3b       	a9 3b             cmp.b	#0x3b,r1l
    8b30:	43 3c       	43 3c             bls	.+60 (8b6e)
    8b32:	0c 9b       	0c 9b             mov.b	r1l,r3l
    8b34:	f3 00       	f3 00             mov.b	#0x0,r3h
    8b36:	f9 3c       	f9 3c             mov.b	#0x3c,r1l
    8b38:	0d 32       	0d 32             mov.w	r3,r2
    8b3a:	51 92       	51 92             divxu.b	r1l,r2
    8b3c:	6a 08 98 bd 	6a 08 98 bd       mov.b	@0x98bd:16,r0l
    8b40:	08 a8       	08 a8             add.b	r2l,r0l
    8b42:	6a 88 98 bd 	6a 88 98 bd       mov.b	r0l,@0x98bd:16
    8b46:	0d 32       	0d 32             mov.w	r3,r2
    8b48:	51 92       	51 92             divxu.b	r1l,r2
    8b4a:	0c 2a       	0c 2a             mov.b	r2h,r2l
    8b4c:	6a 8a 98 bc 	6a 8a 98 bc       mov.b	r2l,@0x98bc:16
    8b50:	a8 3b       	a8 3b             cmp.b	#0x3b,r0l
    8b52:	43 1a       	43 1a             bls	.+26 (8b6e)
    8b54:	f0 00       	f0 00             mov.b	#0x0,r0h
    8b56:	0d 03       	0d 03             mov.w	r0,r3
    8b58:	51 93       	51 93             divxu.b	r1l,r3
    8b5a:	6a 0a 98 be 	6a 0a 98 be       mov.b	@0x98be:16,r2l
    8b5e:	08 ba       	08 ba             add.b	r3l,r2l
    8b60:	6a 8a 98 be 	6a 8a 98 be       mov.b	r2l,@0x98be:16
    8b64:	0d 02       	0d 02             mov.w	r0,r2
    8b66:	51 92       	51 92             divxu.b	r1l,r2
    8b68:	0c 2a       	0c 2a             mov.b	r2h,r2l
    8b6a:	6a 8a 98 bd 	6a 8a 98 bd       mov.b	r2l,@0x98bd:16

00008b6e <.L8>:
    8b6e:	6a 0a 98 bb 	6a 0a 98 bb       mov.b	@0x98bb:16,r2l
    8b72:	8a 01       	8a 01             add.b	#0x1,r2l
    8b74:	6a 8a 98 bb 	6a 8a 98 bb       mov.b	r2l,@0x98bb:16

00008b78 <.ef>:
    8b78:	54 70       	54 70             rts	

00008b7a <_getOptSensor>:
    8b7a:	79 00 14 98 	79 00 14 98       mov.w	#0x1498,r0
    8b7e:	5e 00 92 98 	5e 00 92 98       jsr	@0x9298:0

00008b82 <.eb>:
    8b82:	79 00 10 01 	79 00 10 01       mov.w	#0x1001,r0
    8b86:	5e 00 93 40 	5e 00 93 40       jsr	@0x9340:0
    8b8a:	79 01 98 d2 	79 01 98 d2       mov.w	#0x98d2,r1
    8b8e:	79 00 10 01 	79 00 10 01       mov.w	#0x1001,r0
    8b92:	5e 00 93 7e 	5e 00 93 7e       jsr	@0x937e:0
    8b96:	79 00 10 01 	79 00 10 01       mov.w	#0x1001,r0
    8b9a:	5e 00 93 02 	5e 00 93 02       jsr	@0x9302:0

00008b9e <.ef>:
    8b9e:	54 70       	54 70             rts	

00008ba0 <_getLeftSensor>:
    8ba0:	79 00 14 98 	79 00 14 98       mov.w	#0x1498,r0
    8ba4:	5e 00 92 98 	5e 00 92 98       jsr	@0x9298:0

00008ba8 <.eb>:
    8ba8:	79 00 10 00 	79 00 10 00       mov.w	#0x1000,r0
    8bac:	5e 00 93 40 	5e 00 93 40       jsr	@0x9340:0
    8bb0:	79 01 98 d0 	79 01 98 d0       mov.w	#0x98d0,r1
    8bb4:	79 00 10 00 	79 00 10 00       mov.w	#0x1000,r0
    8bb8:	5e 00 93 7e 	5e 00 93 7e       jsr	@0x937e:0
    8bbc:	79 00 10 00 	79 00 10 00       mov.w	#0x1000,r0
    8bc0:	5e 00 93 02 	5e 00 93 02       jsr	@0x9302:0

00008bc4 <.ef>:
    8bc4:	54 70       	54 70             rts	

00008bc6 <_getRightSensor>:
    8bc6:	79 00 14 98 	79 00 14 98       mov.w	#0x1498,r0
    8bca:	5e 00 92 98 	5e 00 92 98       jsr	@0x9298:0

00008bce <.eb>:
    8bce:	79 00 10 02 	79 00 10 02       mov.w	#0x1002,r0
    8bd2:	5e 00 93 40 	5e 00 93 40       jsr	@0x9340:0
    8bd6:	79 01 98 d4 	79 01 98 d4       mov.w	#0x98d4,r1
    8bda:	79 00 10 02 	79 00 10 02       mov.w	#0x1002,r0
    8bde:	5e 00 93 7e 	5e 00 93 7e       jsr	@0x937e:0
    8be2:	79 00 10 02 	79 00 10 02       mov.w	#0x1002,r0
    8be6:	5e 00 93 02 	5e 00 93 02       jsr	@0x9302:0

00008bea <.ef>:
    8bea:	54 70       	54 70             rts	

00008bec <_motorFunction>:
    8bec:	6d f4       	6d f4             mov.w	r4,@-e7
    8bee:	6d f5       	6d f5             mov.w	r5,@-e7
    8bf0:	6d f6       	6d f6             mov.w	r6,@-e7
    8bf2:	19 11       	19 11             sub.w	r1,r1
    8bf4:	6a 0a 98 ba 	6a 0a 98 ba       mov.b	@0x98ba:16,r2l
    8bf8:	47 08       	47 08             beq	.+8 (8c02)
    8bfa:	6a 89 98 ba 	6a 89 98 ba       mov.b	r1l,@0x98ba:16
    8bfe:	5a 00 90 96 	5a 00 90 96       jmp	@0x9096:0

00008c02 <.L18>:
    8c02:	6b 06 98 d0 	6b 06 98 d0       mov.w	@0x98d0:16,r6
    8c06:	6b 01 98 d4 	6b 01 98 d4       mov.w	@0x98d4:16,r1
    8c0a:	6b 00 98 d2 	6b 00 98 d2       mov.w	@0x98d2:16,r0
    8c0e:	6a 0b 98 c6 	6a 0b 98 c6       mov.b	@0x98c6:16,r3l
    8c12:	f3 00       	f3 00             mov.b	#0x0,r3h
    8c14:	79 02 00 04 	79 02 00 04       mov.w	#0x4,r2
    8c18:	1d 23       	1d 23             cmp.w	r2,r3
    8c1a:	43 04       	43 04             bls	.+4 (8c20)
    8c1c:	5a 00 90 74 	5a 00 90 74       jmp	@0x9074:0

00008c20 <.Lh8BR181>:
    8c20:	09 33       	09 33             add.w	r3,r3
    8c22:	6f 32 95 88 	6f 32 95 88       mov.w	@(0x9588:16,r3),r2
    8c26:	59 20       	59 20             jmp	@r2
    8c28:	5a 00 90 74 	5a 00 90 74       jmp	@0x9074:0

00008c2c <.L20>:
    8c2c:	19 22       	19 22             sub.w	r2,r2

00008c2e <.bb>:
    8c2e:	6d f2       	6d f2             mov.w	r2,@-e7
    8c30:	79 02 1f 48 	79 02 1f 48       mov.w	#0x1f48,r2
    8c34:	79 01 30 01 	79 01 30 01       mov.w	#0x3001,r1
    8c38:	79 00 1f f2 	79 00 1f f2       mov.w	#0x1ff2,r0
    8c3c:	5e 00 92 cc 	5e 00 92 cc       jsr	@0x92cc:0
    8c40:	0b 87       	0b 87             adds	#0x2,er7

00008c42 <.bb>:
    8c42:	79 00 27 c8 	79 00 27 c8       mov.w	#0x27c8,r0
    8c46:	5e 00 92 98 	5e 00 92 98       jsr	@0x9298:0

00008c4a <.eb>:
    8c4a:	5a 00 90 7a 	5a 00 90 7a       jmp	@0x907a:0

00008c4e <.L23>:
    8c4e:	79 02 ff ff 	79 02 ff ff       mov.w	#0xffff,r2
    8c52:	1d 26       	1d 26             cmp.w	r2,r6
    8c54:	4c 14       	4c 14             bge	.+20 (8c6a)
    8c56:	19 22       	19 22             sub.w	r2,r2
    8c58:	6b 82 98 c2 	6b 82 98 c2       mov.w	r2,@0x98c2:16
    8c5c:	6a 0a 98 c6 	6a 0a 98 c6       mov.b	@0x98c6:16,r2l
    8c60:	6a 8a 98 d6 	6a 8a 98 d6       mov.b	r2l,@0x98d6:16
    8c64:	fa 02       	fa 02             mov.b	#0x2,r2l
    8c66:	5a 00 90 76 	5a 00 90 76       jmp	@0x9076:0

00008c6a <.L24>:
    8c6a:	1d 21       	1d 21             cmp.w	r2,r1
    8c6c:	4c 14       	4c 14             bge	.+20 (8c82)
    8c6e:	19 22       	19 22             sub.w	r2,r2
    8c70:	6b 82 98 c2 	6b 82 98 c2       mov.w	r2,@0x98c2:16
    8c74:	6a 0a 98 c6 	6a 0a 98 c6       mov.b	@0x98c6:16,r2l
    8c78:	6a 8a 98 d6 	6a 8a 98 d6       mov.b	r2l,@0x98d6:16
    8c7c:	fa 03       	fa 03             mov.b	#0x3,r2l
    8c7e:	5a 00 90 76 	5a 00 90 76       jmp	@0x9076:0

00008c82 <.L26>:
    8c82:	6a 0a 98 c9 	6a 0a 98 c9       mov.b	@0x98c9:16,r2l
    8c86:	aa 04       	aa 04             cmp.b	#0x4,r2l
    8c88:	47 42       	47 42             beq	.+66 (8ccc)
    8c8a:	79 02 ff 5b 	79 02 ff 5b       mov.w	#0xff5b,r2
    8c8e:	1d 20       	1d 20             cmp.w	r2,r0
    8c90:	4f 3a       	4f 3a             ble	.+58 (8ccc)
    8c92:	fa 0c       	fa 0c             mov.b	#0xc,r2l
    8c94:	6a 8a 98 c7 	6a 8a 98 c7       mov.b	r2l,@0x98c7:16
    8c98:	19 22       	19 22             sub.w	r2,r2
    8c9a:	6b 82 98 c2 	6b 82 98 c2       mov.w	r2,@0x98c2:16
    8c9e:	fa 04       	fa 04             mov.b	#0x4,r2l
    8ca0:	6a 8a 98 c9 	6a 8a 98 c9       mov.b	r2l,@0x98c9:16
    8ca4:	fa 03       	fa 03             mov.b	#0x3,r2l
    8ca6:	6a 8a 98 bf 	6a 8a 98 bf       mov.b	r2l,@0x98bf:16
    8caa:	6a 8a 98 c0 	6a 8a 98 c0       mov.b	r2l,@0x98c0:16
    8cae:	6b 00 96 98 	6b 00 96 98       mov.w	@0x9698:16,r0
    8cb2:	5e 00 87 a8 	5e 00 87 a8       jsr	@0x87a8:0
    8cb6:	6b 00 96 a2 	6b 00 96 a2       mov.w	@0x96a2:16,r0
    8cba:	5e 00 87 a8 	5e 00 87 a8       jsr	@0x87a8:0
    8cbe:	fa 01       	fa 01             mov.b	#0x1,r2l
    8cc0:	6a 8a 98 c6 	6a 8a 98 c6       mov.b	r2l,@0x98c6:16
    8cc4:	6a 8a 98 ca 	6a 8a 98 ca       mov.b	r2l,@0x98ca:16
    8cc8:	5a 00 90 7a 	5a 00 90 7a       jmp	@0x907a:0

00008ccc <.L28>:
    8ccc:	6a 09 98 bb 	6a 09 98 bb       mov.b	@0x98bb:16,r1l
    8cd0:	f1 00       	f1 00             mov.b	#0x0,r1h
    8cd2:	6a 0b 98 bc 	6a 0b 98 bc       mov.b	@0x98bc:16,r3l
    8cd6:	fa 64       	fa 64             mov.b	#0x64,r2l
    8cd8:	50 b2       	50 b2             mulxu.b	r3l,r2
    8cda:	09 21       	09 21             add.w	r2,r1
    8cdc:	6b 02 98 c2 	6b 02 98 c2       mov.w	@0x98c2:16,r2
    8ce0:	19 21       	19 21             sub.w	r2,r1
    8ce2:	0d 11       	0d 11             mov.w	r1,r1
    8ce4:	4c 04       	4c 04             bge	.+4 (8cea)
    8ce6:	89 70       	89 70             add.b	#0x70,r1l
    8ce8:	91 17       	91 17             addx	#0x17,r1h

00008cea <.L30>:
    8cea:	6a 0b 98 c7 	6a 0b 98 c7       mov.b	@0x98c7:16,r3l
    8cee:	f3 00       	f3 00             mov.b	#0x0,r3h
    8cf0:	79 02 00 0c 	79 02 00 0c       mov.w	#0xc,r2
    8cf4:	1d 23       	1d 23             cmp.w	r2,r3
    8cf6:	43 04       	43 04             bls	.+4 (8cfc)
    8cf8:	5a 00 8d 8a 	5a 00 8d 8a       jmp	@0x8d8a:0

00008cfc <.Lh8BR315>:
    8cfc:	09 33       	09 33             add.w	r3,r3
    8cfe:	6f 32 95 92 	6f 32 95 92       mov.w	@(0x9592:16,r3),r2
    8d02:	59 20       	59 20             jmp	@r2
    8d04:	5a 00 8d 8a 	5a 00 8d 8a       jmp	@0x8d8a:0

00008d08 <.L32>:
    8d08:	fa 04       	fa 04             mov.b	#0x4,r2l
    8d0a:	6a 8a 98 c9 	6a 8a 98 c9       mov.b	r2l,@0x98c9:16
    8d0e:	18 aa       	18 aa             sub.b	r2l,r2l
    8d10:	40 32       	40 32             bra	.+50 (8d44)

00008d12 <.L33>:
    8d12:	79 02 02 ee 	79 02 02 ee       mov.w	#0x2ee,r2
    8d16:	40 1c       	40 1c             bra	.+28 (8d34)

00008d18 <.L36>:
    8d18:	79 02 00 50 	79 02 00 50       mov.w	#0x50,r2
    8d1c:	1d 21       	1d 21             cmp.w	r2,r1
    8d1e:	4f 6a       	4f 6a             ble	.+106 (8d8a)
    8d20:	fa 03       	fa 03             mov.b	#0x3,r2l
    8d22:	40 16       	40 16             bra	.+22 (8d3a)

00008d24 <.L40>:
    8d24:	79 02 00 a0 	79 02 00 a0       mov.w	#0xa0,r2
    8d28:	1d 21       	1d 21             cmp.w	r2,r1
    8d2a:	4f 5e       	4f 5e             ble	.+94 (8d8a)
    8d2c:	fa 03       	fa 03             mov.b	#0x3,r2l
    8d2e:	40 0a       	40 0a             bra	.+10 (8d3a)

00008d30 <.L46>:
    8d30:	79 02 00 10 	79 02 00 10       mov.w	#0x10,r2

00008d34 <.L125>:
    8d34:	1d 21       	1d 21             cmp.w	r2,r1
    8d36:	4f 52       	4f 52             ble	.+82 (8d8a)
    8d38:	18 aa       	18 aa             sub.b	r2l,r2l

00008d3a <.L126>:
    8d3a:	6a 8a 98 c9 	6a 8a 98 c9       mov.b	r2l,@0x98c9:16
    8d3e:	6a 0a 98 c7 	6a 0a 98 c7       mov.b	@0x98c7:16,r2l
    8d42:	8a 01       	8a 01             add.b	#0x1,r2l

00008d44 <.L124>:
    8d44:	6a 8a 98 c7 	6a 8a 98 c7       mov.b	r2l,@0x98c7:16
    8d48:	6a 0b 98 bb 	6a 0b 98 bb       mov.b	@0x98bb:16,r3l
    8d4c:	f3 00       	f3 00             mov.b	#0x0,r3h
    8d4e:	6a 08 98 bc 	6a 08 98 bc       mov.b	@0x98bc:16,r0l
    8d52:	fa 64       	fa 64             mov.b	#0x64,r2l
    8d54:	50 82       	50 82             mulxu.b	r0l,r2
    8d56:	09 23       	09 23             add.w	r2,r3
    8d58:	6b 83 98 c2 	6b 83 98 c2       mov.w	r3,@0x98c2:16
    8d5c:	40 2c       	40 2c             bra	.+44 (8d8a)

00008d5e <.L48>:
    8d5e:	79 02 00 50 	79 02 00 50       mov.w	#0x50,r2
    8d62:	1d 21       	1d 21             cmp.w	r2,r1
    8d64:	4f 24       	4f 24             ble	.+36 (8d8a)
    8d66:	fa 03       	fa 03             mov.b	#0x3,r2l
    8d68:	6a 8a 98 bf 	6a 8a 98 bf       mov.b	r2l,@0x98bf:16
    8d6c:	6a 8a 98 c0 	6a 8a 98 c0       mov.b	r2l,@0x98c0:16
    8d70:	6b 00 96 98 	6b 00 96 98       mov.w	@0x9698:16,r0
    8d74:	5e 00 87 a8 	5e 00 87 a8       jsr	@0x87a8:0
    8d78:	6b 00 96 a2 	6b 00 96 a2       mov.w	@0x96a2:16,r0
    8d7c:	5e 00 87 a8 	5e 00 87 a8       jsr	@0x87a8:0
    8d80:	6a 0a 98 c7 	6a 0a 98 c7       mov.b	@0x98c7:16,r2l
    8d84:	8a 01       	8a 01             add.b	#0x1,r2l
    8d86:	6a 8a 98 c7 	6a 8a 98 c7       mov.b	r2l,@0x98c7:16

00008d8a <.L31>:
    8d8a:	6a 0b 98 c9 	6a 0b 98 c9       mov.b	@0x98c9:16,r3l
    8d8e:	f3 00       	f3 00             mov.b	#0x0,r3h
    8d90:	79 00 00 03 	79 00 00 03       mov.w	#0x3,r0
    8d94:	1d 03       	1d 03             cmp.w	r0,r3
    8d96:	47 1c       	47 1c             beq	.+28 (8db4)
    8d98:	4e 08       	4e 08             bgt	.+8 (8da2)
    8d9a:	0d 33       	0d 33             mov.w	r3,r3
    8d9c:	47 10       	47 10             beq	.+16 (8dae)
    8d9e:	5a 00 90 7a 	5a 00 90 7a       jmp	@0x907a:0

00008da2 <.L58>:
    8da2:	79 02 00 04 	79 02 00 04       mov.w	#0x4,r2
    8da6:	1d 23       	1d 23             cmp.w	r2,r3
    8da8:	47 16       	47 16             beq	.+22 (8dc0)
    8daa:	5a 00 90 7a 	5a 00 90 7a       jmp	@0x907a:0

00008dae <.L53>:
    8dae:	fa 01       	fa 01             mov.b	#0x1,r2l
    8db0:	5a 00 90 5a 	5a 00 90 5a       jmp	@0x905a:0

00008db4 <.L54>:
    8db4:	fa 01       	fa 01             mov.b	#0x1,r2l
    8db6:	6a 8a 98 bf 	6a 8a 98 bf       mov.b	r2l,@0x98bf:16
    8dba:	fa 02       	fa 02             mov.b	#0x2,r2l
    8dbc:	5a 00 90 5e 	5a 00 90 5e       jmp	@0x905e:0

00008dc0 <.L55>:
    8dc0:	6a 88 98 bf 	6a 88 98 bf       mov.b	r0l,@0x98bf:16
    8dc4:	6a 88 98 c0 	6a 88 98 c0       mov.b	r0l,@0x98c0:16
    8dc8:	5a 00 90 62 	5a 00 90 62       jmp	@0x9062:0

00008dcc <.L59>:
    8dcc:	6a 0b 98 cc 	6a 0b 98 cc       mov.b	@0x98cc:16,r3l
    8dd0:	8b 01       	8b 01             add.b	#0x1,r3l
    8dd2:	6a 8b 98 cc 	6a 8b 98 cc       mov.b	r3l,@0x98cc:16
    8dd6:	6a 0a 98 ca 	6a 0a 98 ca       mov.b	@0x98ca:16,r2l
    8dda:	47 16       	47 16             beq	.+22 (8df2)
    8ddc:	18 aa       	18 aa             sub.b	r2l,r2l
    8dde:	6a 8a 98 ca 	6a 8a 98 ca       mov.b	r2l,@0x98ca:16
    8de2:	fa 01       	fa 01             mov.b	#0x1,r2l
    8de4:	6a 8a 98 c0 	6a 8a 98 c0       mov.b	r2l,@0x98c0:16
    8de8:	fa 04       	fa 04             mov.b	#0x4,r2l
    8dea:	6a 8a 98 bf 	6a 8a 98 bf       mov.b	r2l,@0x98bf:16
    8dee:	5a 00 90 7a 	5a 00 90 7a       jmp	@0x907a:0

00008df2 <.L60>:
    8df2:	ab 05       	ab 05             cmp.b	#0x5,r3l
    8df4:	46 16       	46 16             bne	.+22 (8e0c)
    8df6:	6a 0a 98 c0 	6a 0a 98 c0       mov.b	@0x98c0:16,r2l
    8dfa:	aa 04       	aa 04             cmp.b	#0x4,r2l
    8dfc:	46 08       	46 08             bne	.+8 (8e06)
    8dfe:	fa 03       	fa 03             mov.b	#0x3,r2l
    8e00:	6a 8a 98 c0 	6a 8a 98 c0       mov.b	r2l,@0x98c0:16
    8e04:	40 06       	40 06             bra	.+6 (8e0c)

00008e06 <.L62>:
    8e06:	fa 03       	fa 03             mov.b	#0x3,r2l
    8e08:	6a 8a 98 bf 	6a 8a 98 bf       mov.b	r2l,@0x98bf:16

00008e0c <.L61>:
    8e0c:	6a 0a 98 cc 	6a 0a 98 cc       mov.b	@0x98cc:16,r2l
    8e10:	aa 08       	aa 08             cmp.b	#0x8,r2l
    8e12:	46 1c       	46 1c             bne	.+28 (8e30)
    8e14:	6a 0a 98 c0 	6a 0a 98 c0       mov.b	@0x98c0:16,r2l
    8e18:	aa 03       	aa 03             cmp.b	#0x3,r2l
    8e1a:	46 08       	46 08             bne	.+8 (8e24)
    8e1c:	fa 04       	fa 04             mov.b	#0x4,r2l
    8e1e:	6a 8a 98 c0 	6a 8a 98 c0       mov.b	r2l,@0x98c0:16
    8e22:	40 06       	40 06             bra	.+6 (8e2a)

00008e24 <.L65>:
    8e24:	fa 04       	fa 04             mov.b	#0x4,r2l
    8e26:	6a 8a 98 bf 	6a 8a 98 bf       mov.b	r2l,@0x98bf:16

00008e2a <.L66>:
    8e2a:	18 aa       	18 aa             sub.b	r2l,r2l
    8e2c:	6a 8a 98 cc 	6a 8a 98 cc       mov.b	r2l,@0x98cc:16

00008e30 <.L64>:
    8e30:	79 02 ff ff 	79 02 ff ff       mov.w	#0xffff,r2
    8e34:	1d 26       	1d 26             cmp.w	r2,r6
    8e36:	4c 10       	4c 10             bge	.+16 (8e48)
    8e38:	6a 0a 98 c6 	6a 0a 98 c6       mov.b	@0x98c6:16,r2l
    8e3c:	6a 8a 98 d6 	6a 8a 98 d6       mov.b	r2l,@0x98d6:16
    8e40:	fa 02       	fa 02             mov.b	#0x2,r2l
    8e42:	6a 8a 98 c6 	6a 8a 98 c6       mov.b	r2l,@0x98c6:16
    8e46:	40 48       	40 48             bra	.+72 (8e90)

00008e48 <.L67>:
    8e48:	1d 21       	1d 21             cmp.w	r2,r1
    8e4a:	4c 10       	4c 10             bge	.+16 (8e5c)
    8e4c:	6a 0a 98 c6 	6a 0a 98 c6       mov.b	@0x98c6:16,r2l
    8e50:	6a 8a 98 d6 	6a 8a 98 d6       mov.b	r2l,@0x98d6:16
    8e54:	fa 03       	fa 03             mov.b	#0x3,r2l
    8e56:	6a 8a 98 c6 	6a 8a 98 c6       mov.b	r2l,@0x98c6:16
    8e5a:	40 34       	40 34             bra	.+52 (8e90)

00008e5c <.L69>:
    8e5c:	79 02 ff 51 	79 02 ff 51       mov.w	#0xff51,r2
    8e60:	1d 20       	1d 20             cmp.w	r2,r0
    8e62:	4c 1e       	4c 1e             bge	.+30 (8e82)
    8e64:	6a 0a 98 cb 	6a 0a 98 cb       mov.b	@0x98cb:16,r2l
    8e68:	47 26       	47 26             beq	.+38 (8e90)
    8e6a:	18 aa       	18 aa             sub.b	r2l,r2l
    8e6c:	6a 8a 98 cb 	6a 8a 98 cb       mov.b	r2l,@0x98cb:16
    8e70:	6a 0d 98 c0 	6a 0d 98 c0       mov.b	@0x98c0:16,r5l
    8e74:	6a 0a 98 bf 	6a 0a 98 bf       mov.b	@0x98bf:16,r2l
    8e78:	6a 8a 98 c0 	6a 8a 98 c0       mov.b	r2l,@0x98c0:16
    8e7c:	0c ac       	0c ac             mov.b	r2l,r4l
    8e7e:	fa 03       	fa 03             mov.b	#0x3,r2l
    8e80:	40 28       	40 28             bra	.+40 (8eaa)

00008e82 <.L71>:
    8e82:	79 02 ff 5b 	79 02 ff 5b       mov.w	#0xff5b,r2
    8e86:	1d 20       	1d 20             cmp.w	r2,r0
    8e88:	4f 06       	4f 06             ble	.+6 (8e90)
    8e8a:	fa 01       	fa 01             mov.b	#0x1,r2l
    8e8c:	6a 8a 98 cb 	6a 8a 98 cb       mov.b	r2l,@0x98cb:16

00008e90 <.L68>:
    8e90:	6a 0a 98 cc 	6a 0a 98 cc       mov.b	@0x98cc:16,r2l
    8e94:	aa 02       	aa 02             cmp.b	#0x2,r2l
    8e96:	47 08       	47 08             beq	.+8 (8ea0)
    8e98:	aa 0a       	aa 0a             cmp.b	#0xa,r2l
    8e9a:	47 04       	47 04             beq	.+4 (8ea0)
    8e9c:	5a 00 90 62 	5a 00 90 62       jmp	@0x9062:0

00008ea0 <.L76>:
    8ea0:	6a 0d 98 bf 	6a 0d 98 bf       mov.b	@0x98bf:16,r5l
    8ea4:	6a 0c 98 c0 	6a 0c 98 c0       mov.b	@0x98c0:16,r4l
    8ea8:	fa 04       	fa 04             mov.b	#0x4,r2l

00008eaa <.L130>:
    8eaa:	6a 8a 98 bf 	6a 8a 98 bf       mov.b	r2l,@0x98bf:16
    8eae:	6a 8a 98 c0 	6a 8a 98 c0       mov.b	r2l,@0x98c0:16
    8eb2:	6b 00 96 98 	6b 00 96 98       mov.w	@0x9698:16,r0
    8eb6:	5e 00 87 a8 	5e 00 87 a8       jsr	@0x87a8:0
    8eba:	6b 00 96 a2 	6b 00 96 a2       mov.w	@0x96a2:16,r0
    8ebe:	5e 00 87 a8 	5e 00 87 a8       jsr	@0x87a8:0
    8ec2:	6a 8d 98 bf 	6a 8d 98 bf       mov.b	r5l,@0x98bf:16
    8ec6:	6a 8c 98 c0 	6a 8c 98 c0       mov.b	r4l,@0x98c0:16
    8eca:	5a 00 90 7a 	5a 00 90 7a       jmp	@0x907a:0

00008ece <.L79>:
    8ece:	6a 09 98 bb 	6a 09 98 bb       mov.b	@0x98bb:16,r1l
    8ed2:	f1 00       	f1 00             mov.b	#0x0,r1h
    8ed4:	6a 0b 98 bc 	6a 0b 98 bc       mov.b	@0x98bc:16,r3l
    8ed8:	fa 64       	fa 64             mov.b	#0x64,r2l
    8eda:	50 b2       	50 b2             mulxu.b	r3l,r2
    8edc:	09 21       	09 21             add.w	r2,r1
    8ede:	6b 02 98 c4 	6b 02 98 c4       mov.w	@0x98c4:16,r2
    8ee2:	19 21       	19 21             sub.w	r2,r1
    8ee4:	0d 11       	0d 11             mov.w	r1,r1
    8ee6:	4c 04       	4c 04             bge	.+4 (8eec)
    8ee8:	89 70       	89 70             add.b	#0x70,r1l
    8eea:	91 17       	91 17             addx	#0x17,r1h

00008eec <.L80>:
    8eec:	6a 0b 98 c8 	6a 0b 98 c8       mov.b	@0x98c8:16,r3l
    8ef0:	f3 00       	f3 00             mov.b	#0x0,r3h
    8ef2:	79 02 00 09 	79 02 00 09       mov.w	#0x9,r2
    8ef6:	1d 23       	1d 23             cmp.w	r2,r3
    8ef8:	43 04       	43 04             bls	.+4 (8efe)
    8efa:	5a 00 90 24 	5a 00 90 24       jmp	@0x9024:0

00008efe <.Lh8BR691>:
    8efe:	09 33       	09 33             add.w	r3,r3
    8f00:	6f 32 95 ac 	6f 32 95 ac       mov.w	@(0x95ac:16,r3),r2
    8f04:	59 20       	59 20             jmp	@r2
    8f06:	5a 00 90 24 	5a 00 90 24       jmp	@0x9024:0

00008f0a <.L82>:
    8f0a:	fa 01       	fa 01             mov.b	#0x1,r2l
    8f0c:	5a 00 8f a2 	5a 00 8f a2       jmp	@0x8fa2:0

00008f10 <.L83>:
    8f10:	79 02 00 15 	79 02 00 15       mov.w	#0x15,r2
    8f14:	1d 21       	1d 21             cmp.w	r2,r1
    8f16:	4e 04       	4e 04             bgt	.+4 (8f1c)
    8f18:	5a 00 90 24 	5a 00 90 24       jmp	@0x9024:0

00008f1c <.Lh8BR717>:
    8f1c:	6a 0a 98 c6 	6a 0a 98 c6       mov.b	@0x98c6:16,r2l
    8f20:	fb 02       	fb 02             mov.b	#0x2,r3l
    8f22:	aa 02       	aa 02             cmp.b	#0x2,r2l
    8f24:	46 02       	46 02             bne	.+2 (8f28)
    8f26:	fb 03       	fb 03             mov.b	#0x3,r3l

00008f28 <.L85>:
    8f28:	6a 8b 98 d7 	6a 8b 98 d7       mov.b	r3l,@0x98d7:16
    8f2c:	40 78       	40 78             bra	.+120 (8fa6)

00008f2e <.L87>:
    8f2e:	79 02 00 10 	79 02 00 10       mov.w	#0x10,r2
    8f32:	1d 21       	1d 21             cmp.w	r2,r1
    8f34:	4e 04       	4e 04             bgt	.+4 (8f3a)
    8f36:	5a 00 90 24 	5a 00 90 24       jmp	@0x9024:0

00008f3a <.Lh8BR737>:
    8f3a:	40 64       	40 64             bra	.+100 (8fa0)

00008f3c <.L89>:
    8f3c:	79 02 00 29 	79 02 00 29       mov.w	#0x29,r2
    8f40:	1d 21       	1d 21             cmp.w	r2,r1
    8f42:	4e 04       	4e 04             bgt	.+4 (8f48)
    8f44:	5a 00 90 24 	5a 00 90 24       jmp	@0x9024:0

00008f48 <.Lh8BR750>:
    8f48:	6a 0a 98 c6 	6a 0a 98 c6       mov.b	@0x98c6:16,r2l
    8f4c:	fb 03       	fb 03             mov.b	#0x3,r3l
    8f4e:	aa 02       	aa 02             cmp.b	#0x2,r2l
    8f50:	46 02       	46 02             bne	.+2 (8f54)
    8f52:	fb 02       	fb 02             mov.b	#0x2,r3l

00008f54 <.L91>:
    8f54:	6a 8b 98 d7 	6a 8b 98 d7       mov.b	r3l,@0x98d7:16
    8f58:	40 4c       	40 4c             bra	.+76 (8fa6)

00008f5a <.L93>:
    8f5a:	79 02 00 10 	79 02 00 10       mov.w	#0x10,r2
    8f5e:	1d 21       	1d 21             cmp.w	r2,r1
    8f60:	4e 04       	4e 04             bgt	.+4 (8f66)
    8f62:	5a 00 90 24 	5a 00 90 24       jmp	@0x9024:0

00008f66 <.Lh8BR770>:
    8f66:	40 38       	40 38             bra	.+56 (8fa0)

00008f68 <.L95>:
    8f68:	79 02 00 42 	79 02 00 42       mov.w	#0x42,r2
    8f6c:	1d 21       	1d 21             cmp.w	r2,r1
    8f6e:	4e 04       	4e 04             bgt	.+4 (8f74)
    8f70:	5a 00 90 24 	5a 00 90 24       jmp	@0x9024:0

00008f74 <.Lh8BR783>:
    8f74:	6a 0a 98 c6 	6a 0a 98 c6       mov.b	@0x98c6:16,r2l
    8f78:	fb 03       	fb 03             mov.b	#0x3,r3l
    8f7a:	aa 02       	aa 02             cmp.b	#0x2,r2l
    8f7c:	46 02       	46 02             bne	.+2 (8f80)
    8f7e:	fb 02       	fb 02             mov.b	#0x2,r3l

00008f80 <.L97>:
    8f80:	6a 8b 98 d7 	6a 8b 98 d7       mov.b	r3l,@0x98d7:16
    8f84:	40 20       	40 20             bra	.+32 (8fa6)

00008f86 <.L99>:
    8f86:	79 02 00 15 	79 02 00 15       mov.w	#0x15,r2
    8f8a:	1d 21       	1d 21             cmp.w	r2,r1
    8f8c:	4e 04       	4e 04             bgt	.+4 (8f92)
    8f8e:	5a 00 90 24 	5a 00 90 24       jmp	@0x9024:0

00008f92 <.Lh8BR803>:
    8f92:	40 0c       	40 0c             bra	.+12 (8fa0)

00008f94 <.L101>:
    8f94:	79 02 ff 5b 	79 02 ff 5b       mov.w	#0xff5b,r2
    8f98:	1d 20       	1d 20             cmp.w	r2,r0
    8f9a:	4e 04       	4e 04             bgt	.+4 (8fa0)
    8f9c:	5a 00 90 24 	5a 00 90 24       jmp	@0x9024:0

00008fa0 <.L133>:
    8fa0:	18 aa       	18 aa             sub.b	r2l,r2l

00008fa2 <.L131>:
    8fa2:	6a 8a 98 d7 	6a 8a 98 d7       mov.b	r2l,@0x98d7:16

00008fa6 <.L132>:
    8fa6:	6a 0a 98 c8 	6a 0a 98 c8       mov.b	@0x98c8:16,r2l
    8faa:	8a 01       	8a 01             add.b	#0x1,r2l
    8fac:	6a 8a 98 c8 	6a 8a 98 c8       mov.b	r2l,@0x98c8:16
    8fb0:	6a 0b 98 bb 	6a 0b 98 bb       mov.b	@0x98bb:16,r3l
    8fb4:	f3 00       	f3 00             mov.b	#0x0,r3h
    8fb6:	6a 08 98 bc 	6a 08 98 bc       mov.b	@0x98bc:16,r0l
    8fba:	fa 64       	fa 64             mov.b	#0x64,r2l
    8fbc:	50 82       	50 82             mulxu.b	r0l,r2
    8fbe:	09 23       	09 23             add.w	r2,r3
    8fc0:	6b 83 98 c4 	6b 83 98 c4       mov.w	r3,@0x98c4:16
    8fc4:	40 5e       	40 5e             bra	.+94 (9024)

00008fc6 <.L103>:
    8fc6:	79 02 00 06 	79 02 00 06       mov.w	#0x6,r2
    8fca:	1d 21       	1d 21             cmp.w	r2,r1
    8fcc:	4f 2e       	4f 2e             ble	.+46 (8ffc)
    8fce:	6a 0a 98 c6 	6a 0a 98 c6       mov.b	@0x98c6:16,r2l
    8fd2:	fb 02       	fb 02             mov.b	#0x2,r3l
    8fd4:	aa 02       	aa 02             cmp.b	#0x2,r2l
    8fd6:	46 02       	46 02             bne	.+2 (8fda)
    8fd8:	fb 03       	fb 03             mov.b	#0x3,r3l

00008fda <.L105>:
    8fda:	6a 8b 98 d7 	6a 8b 98 d7       mov.b	r3l,@0x98d7:16
    8fde:	6a 0a 98 c8 	6a 0a 98 c8       mov.b	@0x98c8:16,r2l
    8fe2:	8a 01       	8a 01             add.b	#0x1,r2l
    8fe4:	6a 8a 98 c8 	6a 8a 98 c8       mov.b	r2l,@0x98c8:16
    8fe8:	6a 0b 98 bb 	6a 0b 98 bb       mov.b	@0x98bb:16,r3l
    8fec:	f3 00       	f3 00             mov.b	#0x0,r3h
    8fee:	6a 08 98 bc 	6a 08 98 bc       mov.b	@0x98bc:16,r0l
    8ff2:	fa 64       	fa 64             mov.b	#0x64,r2l
    8ff4:	50 82       	50 82             mulxu.b	r0l,r2
    8ff6:	09 23       	09 23             add.w	r2,r3
    8ff8:	6b 83 98 c4 	6b 83 98 c4       mov.w	r3,@0x98c4:16

00008ffc <.L107>:
    8ffc:	79 02 00 0b 	79 02 00 0b       mov.w	#0xb,r2
    9000:	1d 21       	1d 21             cmp.w	r2,r1
    9002:	4f 20       	4f 20             ble	.+32 (9024)
    9004:	18 aa       	18 aa             sub.b	r2l,r2l
    9006:	6a 8a 98 c8 	6a 8a 98 c8       mov.b	r2l,@0x98c8:16
    900a:	19 22       	19 22             sub.w	r2,r2
    900c:	6b 82 98 c4 	6b 82 98 c4       mov.w	r2,@0x98c4:16
    9010:	fa 04       	fa 04             mov.b	#0x4,r2l
    9012:	6a 8a 98 d7 	6a 8a 98 d7       mov.b	r2l,@0x98d7:16
    9016:	fa 01       	fa 01             mov.b	#0x1,r2l
    9018:	6a 8a 98 ca 	6a 8a 98 ca       mov.b	r2l,@0x98ca:16
    901c:	6a 0a 98 d6 	6a 0a 98 d6       mov.b	@0x98d6:16,r2l
    9020:	6a 8a 98 c6 	6a 8a 98 c6       mov.b	r2l,@0x98c6:16

00009024 <.L81>:
    9024:	6a 0b 98 d7 	6a 0b 98 d7       mov.b	@0x98d7:16,r3l
    9028:	f3 00       	f3 00             mov.b	#0x0,r3h
    902a:	79 02 00 04 	79 02 00 04       mov.w	#0x4,r2
    902e:	1d 23       	1d 23             cmp.w	r2,r3
    9030:	42 48       	42 48             bhi	.+72 (907a)
    9032:	09 33       	09 33             add.w	r3,r3
    9034:	6f 32 95 c0 	6f 32 95 c0       mov.w	@(0x95c0:16,r3),r2
    9038:	59 20       	59 20             jmp	@r2
    903a:	40 3e       	40 3e             bra	.+62 (907a)

0000903c <.L112>:
    903c:	fa 02       	fa 02             mov.b	#0x2,r2l
    903e:	40 1a       	40 1a             bra	.+26 (905a)

00009040 <.L113>:
    9040:	fa 01       	fa 01             mov.b	#0x1,r2l
    9042:	40 16       	40 16             bra	.+22 (905a)

00009044 <.L114>:
    9044:	fa 02       	fa 02             mov.b	#0x2,r2l
    9046:	6a 8a 98 bf 	6a 8a 98 bf       mov.b	r2l,@0x98bf:16
    904a:	fa 01       	fa 01             mov.b	#0x1,r2l
    904c:	40 10       	40 10             bra	.+16 (905e)

0000904e <.L115>:
    904e:	fa 01       	fa 01             mov.b	#0x1,r2l
    9050:	6a 8a 98 bf 	6a 8a 98 bf       mov.b	r2l,@0x98bf:16
    9054:	fa 02       	fa 02             mov.b	#0x2,r2l
    9056:	40 06       	40 06             bra	.+6 (905e)

00009058 <.L116>:
    9058:	fa 03       	fa 03             mov.b	#0x3,r2l

0000905a <.L127>:
    905a:	6a 8a 98 bf 	6a 8a 98 bf       mov.b	r2l,@0x98bf:16

0000905e <.L128>:
    905e:	6a 8a 98 c0 	6a 8a 98 c0       mov.b	r2l,@0x98c0:16

00009062 <.L129>:
    9062:	6b 00 96 98 	6b 00 96 98       mov.w	@0x9698:16,r0
    9066:	5e 00 87 a8 	5e 00 87 a8       jsr	@0x87a8:0
    906a:	6b 00 96 a2 	6b 00 96 a2       mov.w	@0x96a2:16,r0
    906e:	5e 00 87 a8 	5e 00 87 a8       jsr	@0x87a8:0
    9072:	40 06       	40 06             bra	.+6 (907a)

00009074 <.L119>:
    9074:	18 aa       	18 aa             sub.b	r2l,r2l

00009076 <.L123>:
    9076:	6a 8a 98 c6 	6a 8a 98 c6       mov.b	r2l,@0x98c6:16

0000907a <.L19>:
    907a:	19 22       	19 22             sub.w	r2,r2

0000907c <.bb>:
    907c:	6d f2       	6d f2             mov.w	r2,@-e7
    907e:	0d 62       	0d 62             mov.w	r6,r2
    9080:	79 01 30 01 	79 01 30 01       mov.w	#0x3001,r1
    9084:	79 00 1f f2 	79 00 1f f2       mov.w	#0x1ff2,r0
    9088:	5e 00 92 cc 	5e 00 92 cc       jsr	@0x92cc:0
    908c:	0b 87       	0b 87             adds	#0x2,er7

0000908e <.bb>:
    908e:	79 00 27 c8 	79 00 27 c8       mov.w	#0x27c8,r0
    9092:	5e 00 92 98 	5e 00 92 98       jsr	@0x9298:0

00009096 <.L17>:
    9096:	6d 76       	6d 76             mov.w	@r7+,r6
    9098:	6d 75       	6d 75             mov.w	@r7+,r5
    909a:	6d 74       	6d 74             mov.w	@r7+,r4
    909c:	54 70       	54 70             rts	

0000909e <_motorLeft>:
    909e:	6a 09 98 bf 	6a 09 98 bf       mov.b	@0x98bf:16,r1l
    90a2:	f1 00       	f1 00             mov.b	#0x0,r1h
    90a4:	79 00 20 00 	79 00 20 00       mov.w	#0x2000,r0
    90a8:	5e 00 94 6c 	5e 00 94 6c       jsr	@0x946c:0

000090ac <.ef>:
    90ac:	54 70       	54 70             rts	

000090ae <_motorRight>:
    90ae:	6a 09 98 c0 	6a 09 98 c0       mov.b	@0x98c0:16,r1l
    90b2:	f1 00       	f1 00             mov.b	#0x0,r1h
    90b4:	79 00 20 02 	79 00 20 02       mov.w	#0x2002,r0
    90b8:	5e 00 94 6c 	5e 00 94 6c       jsr	@0x946c:0

000090bc <.ef>:
    90bc:	54 70       	54 70             rts	

000090be <_cputc_native_0>:
    90be:	77 28       	77 28             bld	#0x2,r0l
    90c0:	79 02 ef 44 	79 02 ef 44       mov.w	#0xef44,r2
    90c4:	7d 20 67 40 	7d 20 67 40       bst	#0x4,@r2
    90c8:	77 08       	77 08             bld	#0x0,r0l
    90ca:	7d 20 67 50 	7d 20 67 50       bst	#0x5,@r2
    90ce:	77 58       	77 58             bld	#0x5,r0l
    90d0:	7d 20 67 70 	7d 20 67 70       bst	#0x7,@r2
    90d4:	77 18       	77 18             bld	#0x1,r0l
    90d6:	79 02 ef 45 	79 02 ef 45       mov.w	#0xef45,r2
    90da:	7d 20 67 50 	7d 20 67 50       bst	#0x5,@r2
    90de:	77 68       	77 68             bld	#0x6,r0l
    90e0:	7d 20 67 70 	7d 20 67 70       bst	#0x7,@r2
    90e4:	77 38       	77 38             bld	#0x3,r0l
    90e6:	79 02 ef 47 	79 02 ef 47       mov.w	#0xef47,r2
    90ea:	7d 20 67 50 	7d 20 67 50       bst	#0x5,@r2
    90ee:	77 48       	77 48             bld	#0x4,r0l
    90f0:	7d 20 67 70 	7d 20 67 70       bst	#0x7,@r2

000090f4 <.ef>:
    90f4:	54 70       	54 70             rts	

000090f6 <_cputc_native_1>:
    90f6:	77 28       	77 28             bld	#0x2,r0l
    90f8:	79 02 ef 43 	79 02 ef 43       mov.w	#0xef43,r2
    90fc:	7d 20 67 40 	7d 20 67 40       bst	#0x4,@r2
    9100:	77 08       	77 08             bld	#0x0,r0l
    9102:	7d 20 67 50 	7d 20 67 50       bst	#0x5,@r2
    9106:	77 58       	77 58             bld	#0x5,r0l
    9108:	7d 20 67 70 	7d 20 67 70       bst	#0x7,@r2
    910c:	77 18       	77 18             bld	#0x1,r0l
    910e:	79 02 ef 47 	79 02 ef 47       mov.w	#0xef47,r2
    9112:	7d 20 67 10 	7d 20 67 10       bst	#0x1,@r2
    9116:	77 68       	77 68             bld	#0x6,r0l
    9118:	7d 20 67 30 	7d 20 67 30       bst	#0x3,@r2
    911c:	77 38       	77 38             bld	#0x3,r0l
    911e:	79 02 ef 48 	79 02 ef 48       mov.w	#0xef48,r2
    9122:	7d 20 67 50 	7d 20 67 50       bst	#0x5,@r2
    9126:	77 48       	77 48             bld	#0x4,r0l
    9128:	7d 20 67 70 	7d 20 67 70       bst	#0x7,@r2

0000912c <.ef>:
    912c:	54 70       	54 70             rts	

0000912e <_cputc_native_2>:
    912e:	77 28       	77 28             bld	#0x2,r0l
    9130:	79 02 ef 44 	79 02 ef 44       mov.w	#0xef44,r2
    9134:	7d 20 67 00 	7d 20 67 00       bst	#0x0,@r2
    9138:	77 08       	77 08             bld	#0x0,r0l
    913a:	7d 20 67 10 	7d 20 67 10       bst	#0x1,@r2
    913e:	77 58       	77 58             bld	#0x5,r0l
    9140:	7d 20 67 30 	7d 20 67 30       bst	#0x3,@r2
    9144:	77 18       	77 18             bld	#0x1,r0l
    9146:	79 02 ef 48 	79 02 ef 48       mov.w	#0xef48,r2
    914a:	7d 20 67 10 	7d 20 67 10       bst	#0x1,@r2
    914e:	77 68       	77 68             bld	#0x6,r0l
    9150:	7d 20 67 30 	7d 20 67 30       bst	#0x3,@r2
    9154:	77 38       	77 38             bld	#0x3,r0l
    9156:	79 02 ef 49 	79 02 ef 49       mov.w	#0xef49,r2
    915a:	7d 20 67 50 	7d 20 67 50       bst	#0x5,@r2
    915e:	77 48       	77 48             bld	#0x4,r0l
    9160:	7d 20 67 70 	7d 20 67 70       bst	#0x7,@r2

00009164 <.ef>:
    9164:	54 70       	54 70             rts	

00009166 <_cputc_native_3>:
    9166:	77 28       	77 28             bld	#0x2,r0l
    9168:	79 02 ef 46 	79 02 ef 46       mov.w	#0xef46,r2
    916c:	7d 20 67 00 	7d 20 67 00       bst	#0x0,@r2
    9170:	77 08       	77 08             bld	#0x0,r0l
    9172:	7d 20 67 10 	7d 20 67 10       bst	#0x1,@r2
    9176:	77 58       	77 58             bld	#0x5,r0l
    9178:	7d 20 67 30 	7d 20 67 30       bst	#0x3,@r2
    917c:	77 18       	77 18             bld	#0x1,r0l
    917e:	79 02 ef 4b 	79 02 ef 4b       mov.w	#0xef4b,r2
    9182:	7d 20 67 10 	7d 20 67 10       bst	#0x1,@r2
    9186:	77 68       	77 68             bld	#0x6,r0l
    9188:	7d 20 67 30 	7d 20 67 30       bst	#0x3,@r2
    918c:	77 38       	77 38             bld	#0x3,r0l
    918e:	7d 20 67 50 	7d 20 67 50       bst	#0x5,@r2
    9192:	77 48       	77 48             bld	#0x4,r0l
    9194:	7d 20 67 70 	7d 20 67 70       bst	#0x7,@r2

00009198 <.ef>:
    9198:	54 70       	54 70             rts	

0000919a <_cputc_native_4>:
    919a:	77 28       	77 28             bld	#0x2,r0l
    919c:	79 02 ef 46 	79 02 ef 46       mov.w	#0xef46,r2
    91a0:	7d 20 67 40 	7d 20 67 40       bst	#0x4,@r2
    91a4:	77 08       	77 08             bld	#0x0,r0l
    91a6:	7d 20 67 50 	7d 20 67 50       bst	#0x5,@r2
    91aa:	77 58       	77 58             bld	#0x5,r0l
    91ac:	7d 20 67 70 	7d 20 67 70       bst	#0x7,@r2
    91b0:	77 18       	77 18             bld	#0x1,r0l
    91b2:	79 02 ef 4a 	79 02 ef 4a       mov.w	#0xef4a,r2
    91b6:	7d 20 67 10 	7d 20 67 10       bst	#0x1,@r2
    91ba:	77 68       	77 68             bld	#0x6,r0l
    91bc:	7d 20 67 30 	7d 20 67 30       bst	#0x3,@r2
    91c0:	77 38       	77 38             bld	#0x3,r0l
    91c2:	7d 20 67 50 	7d 20 67 50       bst	#0x5,@r2
    91c6:	77 48       	77 48             bld	#0x4,r0l
    91c8:	7d 20 67 70 	7d 20 67 70       bst	#0x7,@r2

000091cc <.ef>:
    91cc:	54 70       	54 70             rts	

000091ce <_cputc_native>:
    91ce:	79 02 00 04 	79 02 00 04       mov.w	#0x4,r2
    91d2:	1d 21       	1d 21             cmp.w	r2,r1
    91d4:	42 24       	42 24             bhi	.+36 (91fa)
    91d6:	09 11       	09 11             add.w	r1,r1
    91d8:	6f 12 96 4a 	6f 12 96 4a       mov.w	@(0x964a:16,r1),r2
    91dc:	59 20       	59 20             jmp	@r2
    91de:	40 1a       	40 1a             bra	.+26 (91fa)

000091e0 <.L12>:
    91e0:	5e 00 90 be 	5e 00 90 be       jsr	@0x90be:0
    91e4:	40 14       	40 14             bra	.+20 (91fa)

000091e6 <.L13>:
    91e6:	5e 00 90 f6 	5e 00 90 f6       jsr	@0x90f6:0
    91ea:	40 0e       	40 0e             bra	.+14 (91fa)

000091ec <.L14>:
    91ec:	5e 00 91 2e 	5e 00 91 2e       jsr	@0x912e:0
    91f0:	40 08       	40 08             bra	.+8 (91fa)

000091f2 <.L15>:
    91f2:	5e 00 91 66 	5e 00 91 66       jsr	@0x9166:0
    91f6:	40 02       	40 02             bra	.+2 (91fa)

000091f8 <.L16>:
    91f8:	55 a0       	55 a0             bsr	.-96 (919a)

000091fa <.L11>:
    91fa:	54 70       	54 70             rts	

000091fc <_printHex>:
    91fc:	6d f4       	6d f4             mov.w	r4,@-e7
    91fe:	6d f5       	6d f5             mov.w	r5,@-e7
    9200:	6d f6       	6d f6             mov.w	r6,@-e7
    9202:	0d 05       	0d 05             mov.w	r0,r5
    9204:	79 04 00 01 	79 04 00 01       mov.w	#0x1,r4
    9208:	79 06 95 ca 	79 06 95 ca       mov.w	#0x95ca,r6

0000920c <.L23>:
    920c:	0d 53       	0d 53             mov.w	r5,r3
    920e:	eb 0f       	eb 0f             and.b	#0xf,r3l
    9210:	e3 00       	e3 00             and.b	#0x0,r3h
    9212:	11 05       	11 05             shlr	r5h
    9214:	13 0d       	13 0d             rotxr	r5l
    9216:	11 05       	11 05             shlr	r5h
    9218:	13 0d       	13 0d             rotxr	r5l
    921a:	11 05       	11 05             shlr	r5h
    921c:	13 0d       	13 0d             rotxr	r5l
    921e:	11 05       	11 05             shlr	r5h
    9220:	13 0d       	13 0d             rotxr	r5l
    9222:	79 02 00 09 	79 02 00 09       mov.w	#0x9,r2
    9226:	0d 30       	0d 30             mov.w	r3,r0
    9228:	88 30       	88 30             add.b	#0x30,r0l
    922a:	90 00       	90 00             addx	#0x0,r0h
    922c:	1d 23       	1d 23             cmp.w	r2,r3
    922e:	43 06       	43 06             bls	.+6 (9236)
    9230:	79 00 00 37 	79 00 00 37       mov.w	#0x37,r0
    9234:	09 30       	09 30             add.w	r3,r0

00009236 <.L24>:
    9236:	09 60       	09 60             add.w	r6,r0
    9238:	68 08       	68 08             mov.b	@r0,r0l
    923a:	0d 41       	0d 41             mov.w	r4,r1
    923c:	55 90       	55 90             bsr	.-112 (91ce)
    923e:	0b 04       	0b 04             adds	#0x1,er4
    9240:	79 02 00 04 	79 02 00 04       mov.w	#0x4,r2
    9244:	1d 24       	1d 24             cmp.w	r2,r4
    9246:	4f c4       	4f c4             ble	.-60 (920c)

00009248 <.ef>:
    9248:	6d 76       	6d 76             mov.w	@r7+,r6
    924a:	6d 75       	6d 75             mov.w	@r7+,r5
    924c:	6d 74       	6d 74             mov.w	@r7+,r4
    924e:	54 70       	54 70             rts	

00009250 <_outputLCD>:
    9250:	6d f4       	6d f4             mov.w	r4,@-e7
    9252:	0d 04       	0d 04             mov.w	r0,r4
    9254:	55 1e       	55 1e             bsr	.+30 (9274)
    9256:	79 02 30 02 	79 02 30 02       mov.w	#0x3002,r2

0000925a <.bb>:
    925a:	6d f2       	6d f2             mov.w	r2,@-e7
    925c:	0d 42       	0d 42             mov.w	r4,r2
    925e:	79 01 30 01 	79 01 30 01       mov.w	#0x3001,r1
    9262:	79 00 1f f2 	79 00 1f f2       mov.w	#0x1ff2,r0
    9266:	55 64       	55 64             bsr	.+100 (92cc)
    9268:	0b 87       	0b 87             adds	#0x2,er7

0000926a <.bb>:
    926a:	79 00 27 c8 	79 00 27 c8       mov.w	#0x27c8,r0
    926e:	55 28       	55 28             bsr	.+40 (9298)

00009270 <.eb>:
    9270:	6d 74       	6d 74             mov.w	@r7+,r4
    9272:	54 70       	54 70             rts	

00009274 <_clearDisplay>:
    9274:	79 00 27 ac 	79 00 27 ac       mov.w	#0x27ac,r0
    9278:	55 1e       	55 1e             bsr	.+30 (9298)

0000927a <.ef>:
    927a:	54 70       	54 70             rts	
    927c:	6b 00 19 33 	6b 00 19 33       mov.w	@0x1933:16,r0

0000927e <_mDelay>:
    927e:	19 33       	19 33             sub.w	r3,r3
    9280:	1d 03       	1d 03             cmp.w	r0,r3
    9282:	4c 12       	4c 12             bge	.+18 (9296)
    9284:	79 01 02 9f 	79 01 02 9f       mov.w	#0x29f,r1

00009288 <.L5>:
    9288:	19 22       	19 22             sub.w	r2,r2

0000928a <.L8>:
    928a:	0b 02       	0b 02             adds	#0x1,er2
    928c:	1d 12       	1d 12             cmp.w	r1,r2
    928e:	4f fa       	4f fa             ble	.-6 (928a)
    9290:	0b 03       	0b 03             adds	#0x1,er3
    9292:	1d 03       	1d 03             cmp.w	r0,r3
    9294:	4d f2       	4d f2             blt	.-14 (9288)

00009296 <.L3>:
    9296:	54 70       	54 70             rts	

00009298 <___rcall0>:
    9298:	6d f6       	6d f6             mov.w	r6,@-e7
    929a:	5d 00       	5d 00             jsr	@r0
    929c:	0d 60       	0d 60             mov.w	r6,r0
    929e:	6d 76       	6d 76             mov.w	@r7+,r6
    92a0:	54 70       	54 70             rts	

000092a2 <.bf>:
    92a2:	fa 01       	fa 01             mov.b	#0x1,r2l
    92a4:	6a 8a ff cc 	6a 8a ff cc       mov.b	r2l,@0xffcc:16
    92a8:	6b 02 00 00 	6b 02 00 00       mov.w	@0x0:16,r2
    92ac:	5d 20       	5d 20             jsr	@r2

000092ae <.ef>:
    92ae:	54 70       	54 70             rts	

000092b0 <___rcall1>:
    92b0:	6d f6       	6d f6             mov.w	r6,@-e7
    92b2:	0d 16       	0d 16             mov.w	r1,r6
    92b4:	5d 00       	5d 00             jsr	@r0
    92b6:	0d 60       	0d 60             mov.w	r6,r0
    92b8:	6d 76       	6d 76             mov.w	@r7+,r6
    92ba:	54 70       	54 70             rts	

000092bc <___rcall2>:
    92bc:	6d f6       	6d f6             mov.w	r6,@-e7
    92be:	6d f2       	6d f2             mov.w	r2,@-e7
    92c0:	0d 16       	0d 16             mov.w	r1,r6
    92c2:	5d 00       	5d 00             jsr	@r0
    92c4:	0d 60       	0d 60             mov.w	r6,r0
    92c6:	0b 87       	0b 87             adds	#0x2,er7
    92c8:	6d 76       	6d 76             mov.w	@r7+,r6
    92ca:	54 70       	54 70             rts	

000092cc <___rcall3>:
    92cc:	6d f6       	6d f6             mov.w	r6,@-e7
    92ce:	6f 73 00 04 	6f 73 00 04       mov.w	@(0x4:16,r7),r3
    92d2:	6d f3       	6d f3             mov.w	r3,@-e7
    92d4:	6d f2       	6d f2             mov.w	r2,@-e7
    92d6:	0d 16       	0d 16             mov.w	r1,r6
    92d8:	5d 00       	5d 00             jsr	@r0
    92da:	0d 60       	0d 60             mov.w	r6,r0
    92dc:	0b 87       	0b 87             adds	#0x2,er7
    92de:	0b 87       	0b 87             adds	#0x2,er7
    92e0:	6d 76       	6d 76             mov.w	@r7+,r6
    92e2:	54 70       	54 70             rts	

000092e4 <___rcall4>:
    92e4:	6d f6       	6d f6             mov.w	r6,@-e7
    92e6:	6f 73 00 06 	6f 73 00 06       mov.w	@(0x6:16,r7),r3
    92ea:	6d f3       	6d f3             mov.w	r3,@-e7
    92ec:	6f 73 00 06 	6f 73 00 06       mov.w	@(0x6:16,r7),r3
    92f0:	6d f3       	6d f3             mov.w	r3,@-e7
    92f2:	6d f2       	6d f2             mov.w	r2,@-e7
    92f4:	0d 16       	0d 16             mov.w	r1,r6
    92f6:	5d 00       	5d 00             jsr	@r0
    92f8:	0d 60       	0d 60             mov.w	r6,r0
    92fa:	8f 06       	8f 06             add.b	#0x6,r7l
    92fc:	97 00       	97 00             addx	#0x0,r7h
    92fe:	6d 76       	6d 76             mov.w	@r7+,r6
    9300:	54 70       	54 70             rts	

00009302 <_setSensorActive>:
    9302:	79 02 10 01 	79 02 10 01       mov.w	#0x1001,r2
    9306:	1d 20       	1d 20             cmp.w	r2,r0
    9308:	47 20       	47 20             beq	.+32 (932a)
    930a:	4e 0a       	4e 0a             bgt	.+10 (9316)
    930c:	79 02 10 00 	79 02 10 00       mov.w	#0x1000,r2
    9310:	1d 20       	1d 20             cmp.w	r2,r0
    9312:	47 0c       	47 0c             beq	.+12 (9320)
    9314:	40 28       	40 28             bra	.+40 (933e)

00009316 <.L9>:
    9316:	79 02 10 02 	79 02 10 02       mov.w	#0x1002,r2
    931a:	1d 20       	1d 20             cmp.w	r2,r0
    931c:	47 16       	47 16             beq	.+22 (9334)
    931e:	40 1e       	40 1e             bra	.+30 (933e)

00009320 <.L4>:
    9320:	6b 03 98 ce 	6b 03 98 ce       mov.w	@0x98ce:16,r3
    9324:	68 3a       	68 3a             mov.b	@r3,r2l
    9326:	ca 04       	ca 04             or.b	#0x4,r2l
    9328:	40 12       	40 12             bra	.+18 (933c)

0000932a <.L5>:
    932a:	6b 03 98 ce 	6b 03 98 ce       mov.w	@0x98ce:16,r3
    932e:	68 3a       	68 3a             mov.b	@r3,r2l
    9330:	ca 02       	ca 02             or.b	#0x2,r2l
    9332:	40 08       	40 08             bra	.+8 (933c)

00009334 <.L6>:
    9334:	6b 03 98 ce 	6b 03 98 ce       mov.w	@0x98ce:16,r3
    9338:	68 3a       	68 3a             mov.b	@r3,r2l
    933a:	ca 01       	ca 01             or.b	#0x1,r2l

0000933c <.L10>:
    933c:	68 ba       	68 ba             mov.b	r2l,@e3

0000933e <.L3>:
    933e:	54 70       	54 70             rts	

00009340 <_setSensorPassive>:
    9340:	79 02 10 01 	79 02 10 01       mov.w	#0x1001,r2
    9344:	1d 20       	1d 20             cmp.w	r2,r0
    9346:	47 20       	47 20             beq	.+32 (9368)
    9348:	4e 0a       	4e 0a             bgt	.+10 (9354)
    934a:	79 02 10 00 	79 02 10 00       mov.w	#0x1000,r2
    934e:	1d 20       	1d 20             cmp.w	r2,r0
    9350:	47 0c       	47 0c             beq	.+12 (935e)
    9352:	40 28       	40 28             bra	.+40 (937c)

00009354 <.L18>:
    9354:	79 02 10 02 	79 02 10 02       mov.w	#0x1002,r2
    9358:	1d 20       	1d 20             cmp.w	r2,r0
    935a:	47 16       	47 16             beq	.+22 (9372)
    935c:	40 1e       	40 1e             bra	.+30 (937c)

0000935e <.L13>:
    935e:	6b 03 98 ce 	6b 03 98 ce       mov.w	@0x98ce:16,r3
    9362:	68 3a       	68 3a             mov.b	@r3,r2l
    9364:	ea fb       	ea fb             and.b	#0xfb,r2l
    9366:	40 12       	40 12             bra	.+18 (937a)

00009368 <.L14>:
    9368:	6b 03 98 ce 	6b 03 98 ce       mov.w	@0x98ce:16,r3
    936c:	68 3a       	68 3a             mov.b	@r3,r2l
    936e:	ea fd       	ea fd             and.b	#0xfd,r2l
    9370:	40 08       	40 08             bra	.+8 (937a)

00009372 <.L15>:
    9372:	6b 03 98 ce 	6b 03 98 ce       mov.w	@0x98ce:16,r3
    9376:	68 3a       	68 3a             mov.b	@r3,r2l
    9378:	ea fe       	ea fe             and.b	#0xfe,r2l

0000937a <.L19>:
    937a:	68 ba       	68 ba             mov.b	r2l,@e3

0000937c <.L12>:
    937c:	54 70       	54 70             rts	

0000937e <_readSensor>:
    937e:	1b 87       	1b 87             subs	#0x2,er7
    9380:	6d f4       	6d f4             mov.w	r4,@-e7
    9382:	79 03 ff e8 	79 03 ff e8       mov.w	#0xffe8,r3
    9386:	18 aa       	18 aa             sub.b	r2l,r2l
    9388:	6e fa 00 03 	6e fa 00 03       mov.b	r2l,@(0x3:16,e7)
    938c:	68 3a       	68 3a             mov.b	@r3,r2l
    938e:	ea df       	ea df             and.b	#0xdf,r2l
    9390:	68 ba       	68 ba             mov.b	r2l,@e3
    9392:	68 3a       	68 3a             mov.b	@r3,r2l
    9394:	ea 7f       	ea 7f             and.b	#0x7f,r2l
    9396:	68 ba       	68 ba             mov.b	r2l,@e3
    9398:	68 3a       	68 3a             mov.b	@r3,r2l
    939a:	ea bf       	ea bf             and.b	#0xbf,r2l
    939c:	68 ba       	68 ba             mov.b	r2l,@e3
    939e:	68 3a       	68 3a             mov.b	@r3,r2l
    93a0:	ea ef       	ea ef             and.b	#0xef,r2l
    93a2:	68 ba       	68 ba             mov.b	r2l,@e3
    93a4:	68 3a       	68 3a             mov.b	@r3,r2l
    93a6:	ea f0       	ea f0             and.b	#0xf0,r2l
    93a8:	68 ba       	68 ba             mov.b	r2l,@e3
    93aa:	79 02 10 01 	79 02 10 01       mov.w	#0x1001,r2
    93ae:	1d 20       	1d 20             cmp.w	r2,r0
    93b0:	47 26       	47 26             beq	.+38 (93d8)
    93b2:	4e 0a       	4e 0a             bgt	.+10 (93be)
    93b4:	79 02 10 00 	79 02 10 00       mov.w	#0x1000,r2
    93b8:	1d 20       	1d 20             cmp.w	r2,r0
    93ba:	47 14       	47 14             beq	.+20 (93d0)
    93bc:	40 32       	40 32             bra	.+50 (93f0)

000093be <.L28>:
    93be:	79 02 10 02 	79 02 10 02       mov.w	#0x1002,r2
    93c2:	1d 20       	1d 20             cmp.w	r2,r0
    93c4:	47 1a       	47 1a             beq	.+26 (93e0)
    93c6:	79 02 10 03 	79 02 10 03       mov.w	#0x1003,r2
    93ca:	1d 20       	1d 20             cmp.w	r2,r0
    93cc:	47 18       	47 18             beq	.+24 (93e6)
    93ce:	40 20       	40 20             bra	.+32 (93f0)

000093d0 <.L22>:
    93d0:	6a 0a ff e8 	6a 0a ff e8       mov.b	@0xffe8:16,r2l
    93d4:	ca 02       	ca 02             or.b	#0x2,r2l
    93d6:	40 14       	40 14             bra	.+20 (93ec)

000093d8 <.L23>:
    93d8:	6a 0a ff e8 	6a 0a ff e8       mov.b	@0xffe8:16,r2l
    93dc:	ca 01       	ca 01             or.b	#0x1,r2l
    93de:	40 0c       	40 0c             bra	.+12 (93ec)

000093e0 <.L24>:
    93e0:	6a 0a ff e8 	6a 0a ff e8       mov.b	@0xffe8:16,r2l
    93e4:	40 06       	40 06             bra	.+6 (93ec)

000093e6 <.L25>:
    93e6:	6a 0a ff e8 	6a 0a ff e8       mov.b	@0xffe8:16,r2l
    93ea:	ca 03       	ca 03             or.b	#0x3,r2l

000093ec <.L42>:
    93ec:	6a 8a ff e8 	6a 8a ff e8       mov.b	r2l,@0xffe8:16

000093f0 <.L21>:
    93f0:	6a 0a ff e9 	6a 0a ff e9       mov.b	@0xffe9:16,r2l
    93f4:	ea 7f       	ea 7f             and.b	#0x7f,r2l
    93f6:	6a 8a ff e9 	6a 8a ff e9       mov.b	r2l,@0xffe9:16
    93fa:	6a 0a ff e8 	6a 0a ff e8       mov.b	@0xffe8:16,r2l
    93fe:	ca 20       	ca 20             or.b	#0x20,r2l
    9400:	6a 8a ff e8 	6a 8a ff e8       mov.b	r2l,@0xffe8:16

00009404 <.L31>:
    9404:	6a 0a ff e8 	6a 0a ff e8       mov.b	@0xffe8:16,r2l
    9408:	6e fa 00 03 	6e fa 00 03       mov.b	r2l,@(0x3:16,e7)
    940c:	6e 7a 00 03 	6e 7a 00 03       mov.b	@(0x3:16,r7),r2l
    9410:	73 5a       	73 5a             btst	#0x5,r2l
    9412:	47 f0       	47 f0             beq	.-16 (9404)
    9414:	0d 11       	0d 11             mov.w	r1,r1
    9416:	47 4e       	47 4e             beq	.+78 (9466)
    9418:	79 02 10 01 	79 02 10 01       mov.w	#0x1001,r2
    941c:	1d 20       	1d 20             cmp.w	r2,r0
    941e:	47 24       	47 24             beq	.+36 (9444)
    9420:	4e 0a       	4e 0a             bgt	.+10 (942c)
    9422:	79 02 10 00 	79 02 10 00       mov.w	#0x1000,r2
    9426:	1d 20       	1d 20             cmp.w	r2,r0
    9428:	47 14       	47 14             beq	.+20 (943e)
    942a:	40 2a       	40 2a             bra	.+42 (9456)

0000942c <.L41>:
    942c:	79 02 10 02 	79 02 10 02       mov.w	#0x1002,r2
    9430:	1d 20       	1d 20             cmp.w	r2,r0
    9432:	47 16       	47 16             beq	.+22 (944a)
    9434:	79 02 10 03 	79 02 10 03       mov.w	#0x1003,r2
    9438:	1d 20       	1d 20             cmp.w	r2,r0
    943a:	47 14       	47 14             beq	.+20 (9450)
    943c:	40 18       	40 18             bra	.+24 (9456)

0000943e <.L35>:
    943e:	79 02 ff e4 	79 02 ff e4       mov.w	#0xffe4,r2
    9442:	40 14       	40 14             bra	.+20 (9458)

00009444 <.L36>:
    9444:	79 02 ff e2 	79 02 ff e2       mov.w	#0xffe2,r2
    9448:	40 0e       	40 0e             bra	.+14 (9458)

0000944a <.L37>:
    944a:	79 02 ff e0 	79 02 ff e0       mov.w	#0xffe0,r2
    944e:	40 08       	40 08             bra	.+8 (9458)

00009450 <.L38>:
    9450:	79 02 ff e6 	79 02 ff e6       mov.w	#0xffe6,r2
    9454:	40 02       	40 02             bra	.+2 (9458)

00009456 <.L39>:
    9456:	19 22       	19 22             sub.w	r2,r2

00009458 <.L34>:
    9458:	69 22       	69 22             mov.w	@r2,r2
    945a:	fc 06       	fc 06             mov.b	#0x6,r4l

0000945c <.Llt1>:
    945c:	11 82       	11 82             shar	r2h
    945e:	13 0a       	13 0a             rotxr	r2l
    9460:	8c ff       	8c ff             add.b	#0xff,r4l
    9462:	46 f8       	46 f8             bne	.-8 (945c)
    9464:	69 92       	69 92             mov.w	r2,@e1

00009466 <.L33>:
    9466:	6d 74       	6d 74             mov.w	@r7+,r4
    9468:	0b 87       	0b 87             adds	#0x2,er7
    946a:	54 70       	54 70             rts	

0000946c <_setMotor>:
    946c:	79 02 20 00 	79 02 20 00       mov.w	#0x2000,r2
    9470:	1d 20       	1d 20             cmp.w	r2,r0
    9472:	46 4e       	46 4e             bne	.+78 (94c2)
    9474:	79 02 00 01 	79 02 00 01       mov.w	#0x1,r2
    9478:	1d 21       	1d 21             cmp.w	r2,r1
    947a:	46 0c       	46 0c             bne	.+12 (9488)
    947c:	6a 0a f0 00 	6a 0a f0 00       mov.b	@0xf000:16,r2l
    9480:	ea 3f       	ea 3f             and.b	#0x3f,r2l
    9482:	da 80       	da 80             xor	#0x80,r2l
    9484:	6a 8a f0 00 	6a 8a f0 00       mov.b	r2l,@0xf000:16

00009488 <.L3>:
    9488:	79 02 00 02 	79 02 00 02       mov.w	#0x2,r2
    948c:	1d 21       	1d 21             cmp.w	r2,r1
    948e:	46 0c       	46 0c             bne	.+12 (949c)
    9490:	6a 0a f0 00 	6a 0a f0 00       mov.b	@0xf000:16,r2l
    9494:	ea 3f       	ea 3f             and.b	#0x3f,r2l
    9496:	da 40       	da 40             xor	#0x40,r2l
    9498:	6a 8a f0 00 	6a 8a f0 00       mov.b	r2l,@0xf000:16

0000949c <.L4>:
    949c:	79 02 00 03 	79 02 00 03       mov.w	#0x3,r2
    94a0:	1d 21       	1d 21             cmp.w	r2,r1
    94a2:	46 0c       	46 0c             bne	.+12 (94b0)
    94a4:	6a 0a f0 00 	6a 0a f0 00       mov.b	@0xf000:16,r2l
    94a8:	ea 3f       	ea 3f             and.b	#0x3f,r2l
    94aa:	da c0       	da c0             xor	#0xc0,r2l
    94ac:	6a 8a f0 00 	6a 8a f0 00       mov.b	r2l,@0xf000:16

000094b0 <.L5>:
    94b0:	79 02 00 04 	79 02 00 04       mov.w	#0x4,r2
    94b4:	1d 21       	1d 21             cmp.w	r2,r1
    94b6:	46 0a       	46 0a             bne	.+10 (94c2)
    94b8:	6a 0a f0 00 	6a 0a f0 00       mov.b	@0xf000:16,r2l
    94bc:	ea 3f       	ea 3f             and.b	#0x3f,r2l
    94be:	6a 8a f0 00 	6a 8a f0 00       mov.b	r2l,@0xf000:16

000094c2 <.L2>:
    94c2:	79 02 20 01 	79 02 20 01       mov.w	#0x2001,r2
    94c6:	1d 20       	1d 20             cmp.w	r2,r0
    94c8:	46 4c       	46 4c             bne	.+76 (9516)
    94ca:	79 02 00 02 	79 02 00 02       mov.w	#0x2,r2
    94ce:	1d 21       	1d 21             cmp.w	r2,r1
    94d0:	47 28       	47 28             beq	.+40 (94fa)
    94d2:	4e 0a       	4e 0a             bgt	.+10 (94de)
    94d4:	79 02 00 01 	79 02 00 01       mov.w	#0x1,r2
    94d8:	1d 21       	1d 21             cmp.w	r2,r1
    94da:	47 14       	47 14             beq	.+20 (94f0)
    94dc:	40 38       	40 38             bra	.+56 (9516)

000094de <.L15>:
    94de:	79 02 00 03 	79 02 00 03       mov.w	#0x3,r2
    94e2:	1d 21       	1d 21             cmp.w	r2,r1
    94e4:	47 1e       	47 1e             beq	.+30 (9504)
    94e6:	79 02 00 04 	79 02 00 04       mov.w	#0x4,r2
    94ea:	1d 21       	1d 21             cmp.w	r2,r1
    94ec:	47 1e       	47 1e             beq	.+30 (950c)
    94ee:	40 26       	40 26             bra	.+38 (9516)

000094f0 <.L9>:
    94f0:	6a 0a f0 00 	6a 0a f0 00       mov.b	@0xf000:16,r2l
    94f4:	ea fb       	ea fb             and.b	#0xfb,r2l
    94f6:	ca 08       	ca 08             or.b	#0x8,r2l
    94f8:	40 18       	40 18             bra	.+24 (9512)

000094fa <.L10>:
    94fa:	6a 0a f0 00 	6a 0a f0 00       mov.b	@0xf000:16,r2l
    94fe:	ea f7       	ea f7             and.b	#0xf7,r2l
    9500:	ca 04       	ca 04             or.b	#0x4,r2l
    9502:	40 0e       	40 0e             bra	.+14 (9512)

00009504 <.L11>:
    9504:	6a 0a f0 00 	6a 0a f0 00       mov.b	@0xf000:16,r2l
    9508:	ca 0c       	ca 0c             or.b	#0xc,r2l
    950a:	40 06       	40 06             bra	.+6 (9512)

0000950c <.L12>:
    950c:	6a 0a f0 00 	6a 0a f0 00       mov.b	@0xf000:16,r2l
    9510:	ea f3       	ea f3             and.b	#0xf3,r2l

00009512 <.L25>:
    9512:	6a 8a f0 00 	6a 8a f0 00       mov.b	r2l,@0xf000:16

00009516 <.L7>:
    9516:	79 02 20 02 	79 02 20 02       mov.w	#0x2002,r2
    951a:	1d 20       	1d 20             cmp.w	r2,r0
    951c:	46 4c       	46 4c             bne	.+76 (956a)
    951e:	79 02 00 02 	79 02 00 02       mov.w	#0x2,r2
    9522:	1d 21       	1d 21             cmp.w	r2,r1
    9524:	47 28       	47 28             beq	.+40 (954e)
    9526:	4e 0a       	4e 0a             bgt	.+10 (9532)
    9528:	79 02 00 01 	79 02 00 01       mov.w	#0x1,r2
    952c:	1d 21       	1d 21             cmp.w	r2,r1
    952e:	47 14       	47 14             beq	.+20 (9544)
    9530:	40 38       	40 38             bra	.+56 (956a)

00009532 <.L24>:
    9532:	79 02 00 03 	79 02 00 03       mov.w	#0x3,r2
    9536:	1d 21       	1d 21             cmp.w	r2,r1
    9538:	47 1e       	47 1e             beq	.+30 (9558)
    953a:	79 02 00 04 	79 02 00 04       mov.w	#0x4,r2
    953e:	1d 21       	1d 21             cmp.w	r2,r1
    9540:	47 1e       	47 1e             beq	.+30 (9560)
    9542:	40 26       	40 26             bra	.+38 (956a)

00009544 <.L18>:
    9544:	6a 0a f0 00 	6a 0a f0 00       mov.b	@0xf000:16,r2l
    9548:	ea fe       	ea fe             and.b	#0xfe,r2l
    954a:	ca 02       	ca 02             or.b	#0x2,r2l
    954c:	40 18       	40 18             bra	.+24 (9566)

0000954e <.L19>:
    954e:	6a 0a f0 00 	6a 0a f0 00       mov.b	@0xf000:16,r2l
    9552:	ea fd       	ea fd             and.b	#0xfd,r2l
    9554:	ca 01       	ca 01             or.b	#0x1,r2l
    9556:	40 0e       	40 0e             bra	.+14 (9566)

00009558 <.L20>:
    9558:	6a 0a f0 00 	6a 0a f0 00       mov.b	@0xf000:16,r2l
    955c:	ca 03       	ca 03             or.b	#0x3,r2l
    955e:	40 06       	40 06             bra	.+6 (9566)

00009560 <.L21>:
    9560:	6a 0a f0 00 	6a 0a f0 00       mov.b	@0xf000:16,r2l
    9564:	ea fc       	ea fc             and.b	#0xfc,r2l

00009566 <.L26>:
    9566:	6a 8a f0 00 	6a 8a f0 00       mov.b	r2l,@0xf000:16

0000956a <.L16>:
    956a:	54 70       	54 70             rts	

0000956c <.LC0>:
    956c:	44 6f       	44 6f             bcc	.+111 (95dd)
    956e:	20 79       	20 79             mov.b	@0x79:8,r0h
    9570:	6f 75 20 62 	6f 75 20 62       mov.w	@(0x2062:16,r7),r5
    9574:	79 74       	79 74        .word	H'79,H'74
    9576:	65 2c       	65 2c             xor.w	r2,e4
    9578:	20 77       	20 77             mov.b	@0x77:8,r0h
    957a:	68 65       	68 65             mov.b	@r6,r5h
    957c:	6e 20 49 20 	6e 20 49 20       mov.b	@(0x4920:16,r2),r0h
    9580:	6b 6e       	6b 6e        .word	H'6b,H'6e
    9582:	6f 63 6b 3f 	6f 63 6b 3f       mov.w	@(0x6b3f:16,r6),r3
	...

00009588 <.L120>:
    9588:	8c 4e       	8c 4e             add.b	#0x4e,r4l
    958a:	8d cc       	8d cc             add.b	#0xcc,r5l
    958c:	8e ce       	8e ce             add.b	#0xce,r6l
    958e:	8e ce       	8e ce             add.b	#0xce,r6l
    9590:	8c 2c       	8c 2c             add.b	#0x2c,r4l

00009592 <.L50>:
    9592:	8d 12       	8d 12             add.b	#0x12,r5l
    9594:	8d 18       	8d 18             add.b	#0x18,r5l
    9596:	8d 30       	8d 30             add.b	#0x30,r5l
    9598:	8d 18       	8d 18             add.b	#0x18,r5l
    959a:	8d 30       	8d 30             add.b	#0x30,r5l
    959c:	8d 24       	8d 24             add.b	#0x24,r5l
    959e:	8d 30       	8d 30             add.b	#0x30,r5l
    95a0:	8d 24       	8d 24             add.b	#0x24,r5l
    95a2:	8d 30       	8d 30             add.b	#0x30,r5l
    95a4:	8d 24       	8d 24             add.b	#0x24,r5l
    95a6:	8d 30       	8d 30             add.b	#0x30,r5l
    95a8:	8d 5e       	8d 5e             add.b	#0x5e,r5l
    95aa:	8d 08       	8d 08             add.b	#0x8,r5l

000095ac <.L109>:
    95ac:	8f 0a       	8f 0a             add.b	#0xa,r7l
    95ae:	8f 10       	8f 10             add.b	#0x10,r7l
    95b0:	8f 2e       	8f 2e             add.b	#0x2e,r7l
    95b2:	8f 3c       	8f 3c             add.b	#0x3c,r7l
    95b4:	8f 5a       	8f 5a             add.b	#0x5a,r7l
    95b6:	8f 68       	8f 68             add.b	#0x68,r7l
    95b8:	8f 86       	8f 86             add.b	#0x86,r7l
    95ba:	8f 94       	8f 94             add.b	#0x94,r7l
    95bc:	8f c6       	8f c6             add.b	#0xc6,r7l
    95be:	8f fc       	8f fc             add.b	#0xfc,r7l

000095c0 <.L117>:
    95c0:	90 40       	90 40             addx	#0x40,r0h
    95c2:	90 3c       	90 3c             addx	#0x3c,r0h
    95c4:	90 44       	90 44             addx	#0x44,r0h
    95c6:	90 4e       	90 4e             addx	#0x4e,r0h
    95c8:	90 58       	90 58             addx	#0x58,r0h

000095ca <_ascii_display_codes>:
    95ca:	00 20       	00 20        .word	H'0,H'20
    95cc:	20 20       	20 20             mov.b	@0x20:8,r0h
    95ce:	20 20       	20 20             mov.b	@0x20:8,r0h
    95d0:	20 20       	20 20             mov.b	@0x20:8,r0h
    95d2:	20 20       	20 20             mov.b	@0x20:8,r0h
    95d4:	20 20       	20 20             mov.b	@0x20:8,r0h
    95d6:	20 20       	20 20             mov.b	@0x20:8,r0h
    95d8:	20 20       	20 20             mov.b	@0x20:8,r0h
    95da:	20 20       	20 20             mov.b	@0x20:8,r0h
    95dc:	20 20       	20 20             mov.b	@0x20:8,r0h
    95de:	20 20       	20 20             mov.b	@0x20:8,r0h
    95e0:	20 20       	20 20             mov.b	@0x20:8,r0h
    95e2:	20 20       	20 20             mov.b	@0x20:8,r0h
    95e4:	20 20       	20 20             mov.b	@0x20:8,r0h
    95e6:	20 20       	20 20             mov.b	@0x20:8,r0h
    95e8:	20 20       	20 20             mov.b	@0x20:8,r0h
    95ea:	00 42       	00 42        .word	H'0,H'42
    95ec:	0a 7b       	0a 7b        .word	H'a,H'7b
    95ee:	6d 13       	6d 13             mov.w	@r1+,r3
    95f0:	7d 08       	7d 08        .word	H'7d,H'8
    95f2:	3c 66       	3c 66             mov.b	r4l,@0x66:8
    95f4:	5b 43       	5b 43             jmp	@@67 (43)
    95f6:	10 01       	10 01             shll	r1h
    95f8:	10 13       	10 13             shll	r3
    95fa:	7e 42       	7e 42        .word	H'7e,H'42
    95fc:	37 67       	37 67             mov.b	r7h,@0x67:8
    95fe:	4b 6d       	4b 6d             bmi	.+109 (966d)
    9600:	7d 46       	7d 46        .word	H'7d,H'46
    9602:	7f 4f       	7f 4f        .word	H'7f,H'4f
    9604:	21 21       	21 21             mov.b	@0x21:8,r1h
    9606:	31 21       	31 21             mov.b	r1h,@0x21:8
    9608:	61 17       	61 17             bnot	r1h,r7h
    960a:	3f 5f       	3f 5f             mov.b	r7l,@0x5f:8
    960c:	79 3c 73 3d 	79 3c 73 3d       sub.w	#0x733d,e4
    9610:	1d 7c       	1d 7c             cmp.w	r7,e4
    9612:	5b 42       	5b 42             jmp	@@66 (42)
    9614:	62 5b       	62 5b             bclr	r5h,r3l
    9616:	38 5e       	38 5e             mov.b	r0l,@0x5e:8
    9618:	5e 7e 1f 4f 	5e 7e 1f 4f       jsr	@0x7e1f4f:0
    961c:	11 6d       	11 6d        .word	H'11,H'6d
    961e:	46 7a       	46 7a             bne	.+122 (969a)
    9620:	7a 7a       	7a 7a        .word	H'7a,H'7a
    9622:	5b 6b       	5b 6b             jmp	@@107 (6b)
    9624:	37 3c       	37 3c             mov.b	r7h,@0x3c:8
    9626:	49 66       	49 66             bvs	.+102 (968e)
    9628:	0e 20       	0e 20             addx	r2h,r0h
    962a:	02 5f       	02 5f             stmac	mach,er7
    962c:	79 31 73 3d 	79 31 73 3d       sub.w	#0x733d,r1
    9630:	1d 7c       	1d 7c             cmp.w	r7,e4
    9632:	59 42       	59 42        .word	H'59,H'42
    9634:	62 5b       	62 5b             bclr	r5h,r3l
    9636:	38 51       	38 51             mov.b	r0l,@0x51:8
    9638:	51 71       	51 71             divxu.b	r7h,r1
    963a:	1f 4f       	1f 4f        .word	H'1f,H'4f
    963c:	11 6d       	11 6d        .word	H'11,H'6d
    963e:	39 70       	39 70             mov.b	r1l,@0x70:8
    9640:	70 70       	70 70             bset	#0x7,r0h
    9642:	5b 6b       	5b 6b             jmp	@@107 (6b)
    9644:	37 3c       	37 3c             mov.b	r7h,@0x3c:8
    9646:	18 66       	18 66             sub.b	r6h,r6h
    9648:	0e 00       	0e 00             addx	r0h,r0h

0000964a <.L17>:
    964a:	91 e0       	91 e0             addx	#0xe0,r1h
    964c:	91 e6       	91 e6             addx	#0xe6,r1h
    964e:	91 ec       	91 ec             addx	#0xec,r1h
    9650:	91 f2       	91 f2             addx	#0xf2,r1h
    9652:	91 f8       	91 f8             addx	#0xf8,r1h
Disassembly of section .tors:
Disassembly of section .lcddata:
Disassembly of section .romdata:
Disassembly of section .motor:
Disassembly of section .eight:
